ccopy_reg
_reconstructor
p1
(cmatplotlib.font_manager
FontManager
p2
c__builtin__
object
p3
NtRp4
(dp5
S'ttflist'
p6
(lp7
g1
(cmatplotlib.font_manager
FontEntry
p8
g3
NtRp9
(dp10
S'style'
p11
Vnormal
p12
sS'name'
p13
Vcmex10
p14
sS'weight'
p15
I400
sS'stretch'
p16
g12
sS'variant'
p17
g12
sS'fname'
p18
V/Users/zy/anaconda3/envs/Zipline-C/lib/python2.7/site-packages/matplotlib/mpl-data/fonts/ttf/cmex10.ttf
p19
sS'size'
p20
Vscalable
p21
sbag1
(g8
g3
NtRp22
(dp23
g11
Vitalic
p24
sg13
VSTIXNonUnicode
p25
sg15
I700
sg16
g12
sg17
g12
sg18
V/Users/zy/anaconda3/envs/Zipline-C/lib/python2.7/site-packages/matplotlib/mpl-data/fonts/ttf/STIXNonUniBolIta.ttf
p26
sg20
g21
sbag1
(g8
g3
NtRp27
(dp28
g11
g12
sg13
Vcmsy10
p29
sg15
I400
sg16
g12
sg17
g12
sg18
V/Users/zy/anaconda3/envs/Zipline-C/lib/python2.7/site-packages/matplotlib/mpl-data/fonts/ttf/cmsy10.ttf
p30
sg20
g21
sbag1
(g8
g3
NtRp31
(dp32
g11
g12
sg13
VDejaVu Sans Display
p33
sg15
I400
sg16
g12
sg17
g12
sg18
V/Users/zy/anaconda3/envs/Zipline-C/lib/python2.7/site-packages/matplotlib/mpl-data/fonts/ttf/DejaVuSansDisplay.ttf
p34
sg20
g21
sbag1
(g8
g3
NtRp35
(dp36
g11
g12
sg13
VSTIXSizeThreeSym
p37
sg15
I400
sg16
g12
sg17
g12
sg18
V/Users/zy/anaconda3/envs/Zipline-C/lib/python2.7/site-packages/matplotlib/mpl-data/fonts/ttf/STIXSizThreeSymReg.ttf
p38
sg20
g21
sbag1
(g8
g3
NtRp39
(dp40
g11
g24
sg13
VDejaVu Serif
p41
sg15
I700
sg16
g12
sg17
g12
sg18
V/Users/zy/anaconda3/envs/Zipline-C/lib/python2.7/site-packages/matplotlib/mpl-data/fonts/ttf/DejaVuSerif-BoldItalic.ttf
p42
sg20
g21
sbag1
(g8
g3
NtRp43
(dp44
g11
Voblique
p45
sg13
VDejaVu Sans Mono
p46
sg15
I400
sg16
g12
sg17
g12
sg18
V/Users/zy/anaconda3/envs/Zipline-C/lib/python2.7/site-packages/matplotlib/mpl-data/fonts/ttf/DejaVuSansMono-Oblique.ttf
p47
sg20
g21
sbag1
(g8
g3
NtRp48
(dp49
g11
g12
sg13
VSTIXSizeOneSym
p50
sg15
I700
sg16
g12
sg17
g12
sg18
V/Users/zy/anaconda3/envs/Zipline-C/lib/python2.7/site-packages/matplotlib/mpl-data/fonts/ttf/STIXSizOneSymBol.ttf
p51
sg20
g21
sbag1
(g8
g3
NtRp52
(dp53
g11
g12
sg13
VSTIXGeneral
p54
sg15
I400
sg16
g12
sg17
g12
sg18
V/Users/zy/anaconda3/envs/Zipline-C/lib/python2.7/site-packages/matplotlib/mpl-data/fonts/ttf/STIXGeneral.ttf
p55
sg20
g21
sbag1
(g8
g3
NtRp56
(dp57
g11
g12
sg13
VSTIXSizeTwoSym
p58
sg15
I700
sg16
g12
sg17
g12
sg18
V/Users/zy/anaconda3/envs/Zipline-C/lib/python2.7/site-packages/matplotlib/mpl-data/fonts/ttf/STIXSizTwoSymBol.ttf
p59
sg20
g21
sbag1
(g8
g3
NtRp60
(dp61
g11
g12
sg13
VDejaVu Sans
p62
sg15
I400
sg16
g12
sg17
g12
sg18
V/Users/zy/anaconda3/envs/Zipline-C/lib/python2.7/site-packages/matplotlib/mpl-data/fonts/ttf/DejaVuSans.ttf
p63
sg20
g21
sbag1
(g8
g3
NtRp64
(dp65
g11
g45
sg13
VDejaVu Sans
p66
sg15
I700
sg16
g12
sg17
g12
sg18
V/Users/zy/anaconda3/envs/Zipline-C/lib/python2.7/site-packages/matplotlib/mpl-data/fonts/ttf/DejaVuSans-BoldOblique.ttf
p67
sg20
g21
sbag1
(g8
g3
NtRp68
(dp69
g11
g12
sg13
VDejaVu Sans
p70
sg15
I700
sg16
g12
sg17
g12
sg18
V/Users/zy/anaconda3/envs/Zipline-C/lib/python2.7/site-packages/matplotlib/mpl-data/fonts/ttf/DejaVuSans-Bold.ttf
p71
sg20
g21
sbag1
(g8
g3
NtRp72
(dp73
g11
g45
sg13
VDejaVu Sans Mono
p74
sg15
I700
sg16
g12
sg17
g12
sg18
V/Users/zy/anaconda3/envs/Zipline-C/lib/python2.7/site-packages/matplotlib/mpl-data/fonts/ttf/DejaVuSansMono-BoldOblique.ttf
p75
sg20
g21
sbag1
(g8
g3
NtRp76
(dp77
g11
g12
sg13
VSTIXNonUnicode
p78
sg15
I700
sg16
g12
sg17
g12
sg18
V/Users/zy/anaconda3/envs/Zipline-C/lib/python2.7/site-packages/matplotlib/mpl-data/fonts/ttf/STIXNonUniBol.ttf
p79
sg20
g21
sbag1
(g8
g3
NtRp80
(dp81
g11
g12
sg13
VDejaVu Sans Mono
p82
sg15
I400
sg16
g12
sg17
g12
sg18
V/Users/zy/anaconda3/envs/Zipline-C/lib/python2.7/site-packages/matplotlib/mpl-data/fonts/ttf/DejaVuSansMono.ttf
p83
sg20
g21
sbag1
(g8
g3
NtRp84
(dp85
g11
g12
sg13
VSTIXSizeFiveSym
p86
sg15
I400
sg16
g12
sg17
g12
sg18
V/Users/zy/anaconda3/envs/Zipline-C/lib/python2.7/site-packages/matplotlib/mpl-data/fonts/ttf/STIXSizFiveSymReg.ttf
p87
sg20
g21
sbag1
(g8
g3
NtRp88
(dp89
g11
g12
sg13
VDejaVu Serif Display
p90
sg15
I400
sg16
g12
sg17
g12
sg18
V/Users/zy/anaconda3/envs/Zipline-C/lib/python2.7/site-packages/matplotlib/mpl-data/fonts/ttf/DejaVuSerifDisplay.ttf
p91
sg20
g21
sbag1
(g8
g3
NtRp92
(dp93
g11
g12
sg13
VSTIXGeneral
p94
sg15
I700
sg16
g12
sg17
g12
sg18
V/Users/zy/anaconda3/envs/Zipline-C/lib/python2.7/site-packages/matplotlib/mpl-data/fonts/ttf/STIXGeneralBol.ttf
p95
sg20
g21
sbag1
(g8
g3
NtRp96
(dp97
g11
g12
sg13
Vcmmi10
p98
sg15
I400
sg16
g12
sg17
g12
sg18
V/Users/zy/anaconda3/envs/Zipline-C/lib/python2.7/site-packages/matplotlib/mpl-data/fonts/ttf/cmmi10.ttf
p99
sg20
g21
sbag1
(g8
g3
NtRp100
(dp101
g11
g12
sg13
VDejaVu Serif
p102
sg15
I700
sg16
g12
sg17
g12
sg18
V/Users/zy/anaconda3/envs/Zipline-C/lib/python2.7/site-packages/matplotlib/mpl-data/fonts/ttf/DejaVuSerif-Bold.ttf
p103
sg20
g21
sbag1
(g8
g3
NtRp104
(dp105
g11
g12
sg13
VSTIXSizeFourSym
p106
sg15
I400
sg16
g12
sg17
g12
sg18
V/Users/zy/anaconda3/envs/Zipline-C/lib/python2.7/site-packages/matplotlib/mpl-data/fonts/ttf/STIXSizFourSymReg.ttf
p107
sg20
g21
sbag1
(g8
g3
NtRp108
(dp109
g11
g12
sg13
VDejaVu Sans Mono
p110
sg15
I700
sg16
g12
sg17
g12
sg18
V/Users/zy/anaconda3/envs/Zipline-C/lib/python2.7/site-packages/matplotlib/mpl-data/fonts/ttf/DejaVuSansMono-Bold.ttf
p111
sg20
g21
sbag1
(g8
g3
NtRp112
(dp113
g11
g12
sg13
VSTIXNonUnicode
p114
sg15
I400
sg16
g12
sg17
g12
sg18
V/Users/zy/anaconda3/envs/Zipline-C/lib/python2.7/site-packages/matplotlib/mpl-data/fonts/ttf/STIXNonUni.ttf
p115
sg20
g21
sbag1
(g8
g3
NtRp116
(dp117
g11
g12
sg13
Vcmtt10
p118
sg15
I400
sg16
g12
sg17
g12
sg18
V/Users/zy/anaconda3/envs/Zipline-C/lib/python2.7/site-packages/matplotlib/mpl-data/fonts/ttf/cmtt10.ttf
p119
sg20
g21
sbag1
(g8
g3
NtRp120
(dp121
g11
g45
sg13
VDejaVu Sans
p122
sg15
I400
sg16
g12
sg17
g12
sg18
V/Users/zy/anaconda3/envs/Zipline-C/lib/python2.7/site-packages/matplotlib/mpl-data/fonts/ttf/DejaVuSans-Oblique.ttf
p123
sg20
g21
sbag1
(g8
g3
NtRp124
(dp125
g11
g12
sg13
VSTIXSizeOneSym
p126
sg15
I400
sg16
g12
sg17
g12
sg18
V/Users/zy/anaconda3/envs/Zipline-C/lib/python2.7/site-packages/matplotlib/mpl-data/fonts/ttf/STIXSizOneSymReg.ttf
p127
sg20
g21
sbag1
(g8
g3
NtRp128
(dp129
g11
g12
sg13
Vcmr10
p130
sg15
I400
sg16
g12
sg17
g12
sg18
V/Users/zy/anaconda3/envs/Zipline-C/lib/python2.7/site-packages/matplotlib/mpl-data/fonts/ttf/cmr10.ttf
p131
sg20
g21
sbag1
(g8
g3
NtRp132
(dp133
g11
g12
sg13
VDejaVu Serif
p134
sg15
I400
sg16
g12
sg17
g12
sg18
V/Users/zy/anaconda3/envs/Zipline-C/lib/python2.7/site-packages/matplotlib/mpl-data/fonts/ttf/DejaVuSerif.ttf
p135
sg20
g21
sbag1
(g8
g3
NtRp136
(dp137
g11
g24
sg13
VSTIXGeneral
p138
sg15
I700
sg16
g12
sg17
g12
sg18
V/Users/zy/anaconda3/envs/Zipline-C/lib/python2.7/site-packages/matplotlib/mpl-data/fonts/ttf/STIXGeneralBolIta.ttf
p139
sg20
g21
sbag1
(g8
g3
NtRp140
(dp141
g11
g12
sg13
VSTIXSizeFourSym
p142
sg15
I700
sg16
g12
sg17
g12
sg18
V/Users/zy/anaconda3/envs/Zipline-C/lib/python2.7/site-packages/matplotlib/mpl-data/fonts/ttf/STIXSizFourSymBol.ttf
p143
sg20
g21
sbag1
(g8
g3
NtRp144
(dp145
g11
g12
sg13
Vcmb10
p146
sg15
I400
sg16
g12
sg17
g12
sg18
V/Users/zy/anaconda3/envs/Zipline-C/lib/python2.7/site-packages/matplotlib/mpl-data/fonts/ttf/cmb10.ttf
p147
sg20
g21
sbag1
(g8
g3
NtRp148
(dp149
g11
g12
sg13
Vcmss10
p150
sg15
I400
sg16
g12
sg17
g12
sg18
V/Users/zy/anaconda3/envs/Zipline-C/lib/python2.7/site-packages/matplotlib/mpl-data/fonts/ttf/cmss10.ttf
p151
sg20
g21
sbag1
(g8
g3
NtRp152
(dp153
g11
g24
sg13
VDejaVu Serif
p154
sg15
I400
sg16
g12
sg17
g12
sg18
V/Users/zy/anaconda3/envs/Zipline-C/lib/python2.7/site-packages/matplotlib/mpl-data/fonts/ttf/DejaVuSerif-Italic.ttf
p155
sg20
g21
sbag1
(g8
g3
NtRp156
(dp157
g11
g24
sg13
VSTIXNonUnicode
p158
sg15
I400
sg16
g12
sg17
g12
sg18
V/Users/zy/anaconda3/envs/Zipline-C/lib/python2.7/site-packages/matplotlib/mpl-data/fonts/ttf/STIXNonUniIta.ttf
p159
sg20
g21
sbag1
(g8
g3
NtRp160
(dp161
g11
g24
sg13
VSTIXGeneral
p162
sg15
I400
sg16
g12
sg17
g12
sg18
V/Users/zy/anaconda3/envs/Zipline-C/lib/python2.7/site-packages/matplotlib/mpl-data/fonts/ttf/STIXGeneralItalic.ttf
p163
sg20
g21
sbag1
(g8
g3
NtRp164
(dp165
g11
g12
sg13
VSTIXSizeTwoSym
p166
sg15
I400
sg16
g12
sg17
g12
sg18
V/Users/zy/anaconda3/envs/Zipline-C/lib/python2.7/site-packages/matplotlib/mpl-data/fonts/ttf/STIXSizTwoSymReg.ttf
p167
sg20
g21
sbag1
(g8
g3
NtRp168
(dp169
g11
g12
sg13
VSTIXSizeThreeSym
p170
sg15
I700
sg16
g12
sg17
g12
sg18
V/Users/zy/anaconda3/envs/Zipline-C/lib/python2.7/site-packages/matplotlib/mpl-data/fonts/ttf/STIXSizThreeSymBol.ttf
p171
sg20
g21
sbag1
(g8
g3
NtRp172
(dp173
g11
g12
sg13
V.SF NS Display Condensed
p174
sg15
I400
sg16
g12
sg17
g12
sg18
V/System/Library/Fonts/SFNSDisplayCondensed-Regular.otf
p175
sg20
g21
sbag1
(g8
g3
NtRp176
(dp177
g11
g24
sg13
VTrebuchet MS
p178
sg15
I400
sg16
g12
sg17
g12
sg18
V/Library/Fonts/Trebuchet MS Italic.ttf
p179
sg20
g21
sbag1
(g8
g3
NtRp180
(dp181
g11
g12
sg13
VHoefler Text
p182
sg15
I400
sg16
g12
sg17
g12
sg18
V/Library/Fonts/Hoefler Text Ornaments.ttf
p183
sg20
g21
sbag1
(g8
g3
NtRp184
(dp185
g11
g12
sg13
V.SF Compact Rounded
p186
sg15
I400
sg16
g12
sg17
g12
sg18
V/System/Library/Fonts/SFCompactRounded-Heavy.otf
p187
sg20
g21
sbag1
(g8
g3
NtRp188
(dp189
g11
g12
sg13
VTimes New Roman
p190
sg15
I500
sg16
g12
sg17
g12
sg18
V/Library/Fonts/Times New Roman.ttf
p191
sg20
g21
sbag1
(g8
g3
NtRp192
(dp193
g11
g12
sg13
V.SF Compact Display
p194
sg15
I400
sg16
g12
sg17
g12
sg18
V/System/Library/Fonts/SFCompactDisplay-Medium.otf
p195
sg20
g21
sbag1
(g8
g3
NtRp196
(dp197
g11
g45
sg13
VLuxi Mono
p198
sg15
I400
sg16
g12
sg17
g12
sg18
V/usr/X11/lib/X11/fonts/TTF/luximri.ttf
p199
sg20
g21
sbag1
(g8
g3
NtRp200
(dp201
g11
g12
sg13
VVerdana
p202
sg15
I700
sg16
g12
sg17
g12
sg18
V/Library/Fonts/Verdana Bold.ttf
p203
sg20
g21
sbag1
(g8
g3
NtRp204
(dp205
g11
g12
sg13
V.SF Compact Rounded
p206
sg15
I400
sg16
g12
sg17
g12
sg18
V/System/Library/Fonts/SFCompactRounded-Medium.otf
p207
sg20
g21
sbag1
(g8
g3
NtRp208
(dp209
g11
g12
sg13
VSerto Batnan
p210
sg15
I700
sg16
g12
sg17
g12
sg18
V/usr/X11/lib/X11/fonts/OTF/SyrCOMBatnanBold.otf
p211
sg20
g21
sbag1
(g8
g3
NtRp212
(dp213
g11
g12
sg13
VArial Unicode MS
p214
sg15
I400
sg16
g12
sg17
g12
sg18
V/Library/Fonts/Arial Unicode.ttf
p215
sg20
g21
sbag1
(g8
g3
NtRp216
(dp217
g11
g12
sg13
VBitstream Vera Serif
p218
sg15
I400
sg16
g12
sg17
g12
sg18
V/usr/X11/lib/X11/fonts/TTF/VeraSe.ttf
p219
sg20
g21
sbag1
(g8
g3
NtRp220
(dp221
g11
g12
sg13
VSTIXSizeThreeSym
p222
sg15
I400
sg16
g12
sg17
g12
sg18
V/Library/Fonts/STIXSizThreeSymReg.otf
p223
sg20
g21
sbag1
(g8
g3
NtRp224
(dp225
g11
g12
sg13
VDIN Condensed
p226
sg15
I700
sg16
Vcondensed
p227
sg17
g12
sg18
V/Library/Fonts/DIN Condensed Bold.ttf
p228
sg20
g21
sbag1
(g8
g3
NtRp229
(dp230
g11
g12
sg13
VTeamViewer13
p231
sg15
I400
sg16
g12
sg17
g12
sg18
V/Library/Fonts/TeamViewer13.otf
p232
sg20
g21
sbag1
(g8
g3
NtRp233
(dp234
g11
g12
sg13
VSystem Font
p235
sg15
I400
sg16
g12
sg17
g12
sg18
V/System/Library/Fonts/SFNSDisplay-BoldItalic.otf
p236
sg20
g21
sbag1
(g8
g3
NtRp237
(dp238
g11
g12
sg13
VEstrangelo Talada
p239
sg15
I400
sg16
g12
sg17
g12
sg18
V/usr/X11/lib/X11/fonts/OTF/SyrCOMTalada.otf
p240
sg20
g21
sbag1
(g8
g3
NtRp241
(dp242
g11
g12
sg13
VLuxi Mono
p243
sg15
I400
sg16
g12
sg17
g12
sg18
V/usr/X11/lib/X11/fonts/TTF/luximr.ttf
p244
sg20
g21
sbag1
(g8
g3
NtRp245
(dp246
g11
g12
sg13
VHerculanum
p247
sg15
I400
sg16
g12
sg17
g12
sg18
V/Library/Fonts/Herculanum.ttf
p248
sg20
g21
sbag1
(g8
g3
NtRp249
(dp250
g11
g12
sg13
VArial
p251
sg15
I400
sg16
g12
sg17
g12
sg18
V/Library/Fonts/Arial.ttf
p252
sg20
g21
sbag1
(g8
g3
NtRp253
(dp254
g11
g12
sg13
V.SF Compact Display
p255
sg15
I400
sg16
g12
sg17
g12
sg18
V/System/Library/Fonts/SFCompactDisplay-Semibold.otf
p256
sg20
g21
sbag1
(g8
g3
NtRp257
(dp258
g11
g12
sg13
VAppleGothic
p259
sg15
I400
sg16
g12
sg17
g12
sg18
V/Library/Fonts/AppleGothic.ttf
p260
sg20
g21
sbag1
(g8
g3
NtRp261
(dp262
g11
g12
sg13
V.SF NS Text Condensed
p263
sg15
I400
sg16
g12
sg17
g12
sg18
V/System/Library/Fonts/SFNSTextCondensed-Bold.otf
p264
sg20
g21
sbag1
(g8
g3
NtRp265
(dp266
g11
g12
sg13
VArial Narrow
p267
sg15
I400
sg16
g227
sg17
g12
sg18
V/Library/Fonts/Arial Narrow.ttf
p268
sg20
g21
sbag1
(g8
g3
NtRp269
(dp270
g11
g12
sg13
V.SF NS Display Condensed
p271
sg15
I400
sg16
g12
sg17
g12
sg18
V/System/Library/Fonts/SFNSDisplayCondensed-Bold.otf
p272
sg20
g21
sbag1
(g8
g3
NtRp273
(dp274
g11
g12
sg13
VLuxi Mono
p275
sg15
I700
sg16
g12
sg17
g12
sg18
V/usr/X11/lib/X11/fonts/TTF/luximb.ttf
p276
sg20
g21
sbag1
(g8
g3
NtRp277
(dp278
g11
g12
sg13
V.SF Compact Rounded
p279
sg15
I400
sg16
g12
sg17
g12
sg18
V/System/Library/Fonts/SFCompactRounded-Ultralight.otf
p280
sg20
g21
sbag1
(g8
g3
NtRp281
(dp282
g11
g12
sg13
V.SF NS Display Condensed
p283
sg15
I400
sg16
g12
sg17
g12
sg18
V/System/Library/Fonts/SFNSDisplayCondensed-Semibold.otf
p284
sg20
g21
sbag1
(g8
g3
NtRp285
(dp286
g11
g12
sg13
VAppleMyungjo
p287
sg15
I400
sg16
g12
sg17
g12
sg18
V/Library/Fonts/AppleMyungjo.ttf
p288
sg20
g21
sbag1
(g8
g3
NtRp289
(dp290
g11
g12
sg13
VSerto Mardin
p291
sg15
I700
sg16
g12
sg17
g12
sg18
V/usr/X11/lib/X11/fonts/OTF/SyrCOMMardinBold.otf
p292
sg20
g21
sbag1
(g8
g3
NtRp293
(dp294
g11
g12
sg13
VMishafi Gold
p295
sg15
I400
sg16
g12
sg17
g12
sg18
V/Library/Fonts/Mishafi Gold.ttf
p296
sg20
g21
sbag1
(g8
g3
NtRp297
(dp298
g11
g45
sg13
VLuxi Sans
p299
sg15
I400
sg16
g12
sg17
g12
sg18
V/usr/X11/lib/X11/fonts/TTF/luxisri.ttf
p300
sg20
g21
sbag1
(g8
g3
NtRp301
(dp302
g11
g12
sg13
VZapf Dingbats
p303
sg15
I400
sg16
g12
sg17
g12
sg18
V/System/Library/Fonts/ZapfDingbats.ttf
p304
sg20
g21
sbag1
(g8
g3
NtRp305
(dp306
g11
g12
sg13
V.SF Compact Rounded
p307
sg15
I400
sg16
g12
sg17
g12
sg18
V/System/Library/Fonts/SFCompactRounded-Semibold.otf
p308
sg20
g21
sbag1
(g8
g3
NtRp309
(dp310
g11
g12
sg13
V.SF Compact Text
p311
sg15
I400
sg16
g12
sg17
g12
sg18
V/System/Library/Fonts/SFCompactText-BoldItalic.otf
p312
sg20
g21
sbag1
(g8
g3
NtRp313
(dp314
g11
g12
sg13
VSTIXIntegralsD
p315
sg15
I700
sg16
g12
sg17
g12
sg18
V/Library/Fonts/STIXIntDBol.otf
p316
sg20
g21
sbag1
(g8
g3
NtRp317
(dp318
g11
g12
sg13
VSystem Font
p319
sg15
I400
sg16
g12
sg17
g12
sg18
V/System/Library/Fonts/SFNSTextItalic.ttf
p320
sg20
g21
sbag1
(g8
g3
NtRp321
(dp322
g11
g12
sg13
VDIN Alternate
p323
sg15
I700
sg16
g12
sg17
g12
sg18
V/Library/Fonts/DIN Alternate Bold.ttf
p324
sg20
g21
sbag1
(g8
g3
NtRp325
(dp326
g11
g12
sg13
V.SF Compact Display
p327
sg15
I400
sg16
g12
sg17
g12
sg18
V/System/Library/Fonts/SFCompactDisplay-Bold.otf
p328
sg20
g21
sbag1
(g8
g3
NtRp329
(dp330
g11
g12
sg13
VSTIXSizeThreeSym
p331
sg15
I700
sg16
g12
sg17
g12
sg18
V/Library/Fonts/STIXSizThreeSymBol.otf
p332
sg20
g21
sbag1
(g8
g3
NtRp333
(dp334
g11
g12
sg13
VSystem Font
p335
sg15
I400
sg16
g12
sg17
g12
sg18
V/System/Library/Fonts/SFNSDisplay.ttf
p336
sg20
g21
sbag1
(g8
g3
NtRp337
(dp338
g11
g12
sg13
VCourier New
p339
sg15
I400
sg16
g12
sg17
g12
sg18
V/Library/Fonts/Courier New.ttf
p340
sg20
g21
sbag1
(g8
g3
NtRp341
(dp342
g11
g24
sg13
VArial Narrow
p343
sg15
I700
sg16
g227
sg17
g12
sg18
V/Library/Fonts/Arial Narrow Bold Italic.ttf
p344
sg20
g21
sbag1
(g8
g3
NtRp345
(dp346
g11
g12
sg13
VSerto Jerusalem
p347
sg15
I400
sg16
g12
sg17
g12
sg18
V/usr/X11/lib/X11/fonts/OTF/SyrCOMJerusalem.otf
p348
sg20
g21
sbag1
(g8
g3
NtRp349
(dp350
g11
g12
sg13
VLuminari
p351
sg15
I400
sg16
g12
sg17
g12
sg18
V/Library/Fonts/Luminari.ttf
p352
sg20
g21
sbag1
(g8
g3
NtRp353
(dp354
g11
g12
sg13
VZapfino
p355
sg15
I400
sg16
g12
sg17
g12
sg18
V/Library/Fonts/Zapfino.ttf
p356
sg20
g21
sbag1
(g8
g3
NtRp357
(dp358
g11
g12
sg13
VArial Narrow
p359
sg15
I700
sg16
g227
sg17
g12
sg18
V/Library/Fonts/Arial Narrow Bold.ttf
p360
sg20
g21
sbag1
(g8
g3
NtRp361
(dp362
g11
g24
sg13
VTimes New Roman
p363
sg15
I500
sg16
g12
sg17
g12
sg18
V/Library/Fonts/Times New Roman Italic.ttf
p364
sg20
g21
sbag1
(g8
g3
NtRp365
(dp366
g11
g12
sg13
V.SF NS Text Condensed
p367
sg15
I400
sg16
g12
sg17
g12
sg18
V/System/Library/Fonts/SFNSTextCondensed-Medium.otf
p368
sg20
g21
sbag1
(g8
g3
NtRp369
(dp370
g11
g12
sg13
VKrungthep
p371
sg15
I400
sg16
g12
sg17
g12
sg18
V/Library/Fonts/Krungthep.ttf
p372
sg20
g21
sbag1
(g8
g3
NtRp373
(dp374
g11
g12
sg13
V.SF NS Display Condensed
p375
sg15
I400
sg16
g12
sg17
g12
sg18
V/System/Library/Fonts/SFNSDisplayCondensed-Light.otf
p376
sg20
g21
sbag1
(g8
g3
NtRp377
(dp378
g11
g12
sg13
VApple Symbols
p379
sg15
I400
sg16
g12
sg17
g12
sg18
V/System/Library/Fonts/Apple Symbols.ttf
p380
sg20
g21
sbag1
(g8
g3
NtRp381
(dp382
g11
g12
sg13
VSTIXSizeTwoSym
p383
sg15
I700
sg16
g12
sg17
g12
sg18
V/Library/Fonts/STIXSizTwoSymBol.otf
p384
sg20
g21
sbag1
(g8
g3
NtRp385
(dp386
g11
g12
sg13
VSTIXIntegralsSm
p387
sg15
I700
sg16
g12
sg17
g12
sg18
V/Library/Fonts/STIXIntSmBol.otf
p388
sg20
g21
sbag1
(g8
g3
NtRp389
(dp390
g11
g12
sg13
VDiwan Thuluth
p391
sg15
I400
sg16
g12
sg17
g12
sg18
V/Library/Fonts/Diwan Thuluth.ttf
p392
sg20
g21
sbag1
(g8
g3
NtRp393
(dp394
g11
g12
sg13
VTrebuchet MS
p395
sg15
I700
sg16
g12
sg17
g12
sg18
V/Library/Fonts/Trebuchet MS Bold.ttf
p396
sg20
g21
sbag1
(g8
g3
NtRp397
(dp398
g11
g12
sg13
V.SF Compact Text
p399
sg15
I400
sg16
g12
sg17
g12
sg18
V/System/Library/Fonts/SFCompactText-HeavyItalic.otf
p400
sg20
g21
sbag1
(g8
g3
NtRp401
(dp402
g11
g12
sg13
VBradley Hand
p403
sg15
I700
sg16
g12
sg17
g12
sg18
V/Library/Fonts/Bradley Hand Bold.ttf
p404
sg20
g21
sbag1
(g8
g3
NtRp405
(dp406
g11
g12
sg13
VLuxi Serif
p407
sg15
I700
sg16
g12
sg17
g12
sg18
V/usr/X11/lib/X11/fonts/TTF/luxirb.ttf
p408
sg20
g21
sbag1
(g8
g3
NtRp409
(dp410
g11
g12
sg13
V.SF Compact Rounded
p411
sg15
I400
sg16
g12
sg17
g12
sg18
V/System/Library/Fonts/SFCompactRounded-Thin.otf
p412
sg20
g21
sbag1
(g8
g3
NtRp413
(dp414
g11
g12
sg13
VSystem Font
p415
sg15
I400
sg16
g12
sg17
g12
sg18
V/System/Library/Fonts/SFNSDisplay-SemiboldItalic.otf
p416
sg20
g21
sbag1
(g8
g3
NtRp417
(dp418
g11
g24
sg13
VTimes New Roman
p419
sg15
I700
sg16
g12
sg17
g12
sg18
V/Library/Fonts/Times New Roman Bold Italic.ttf
p420
sg20
g21
sbag1
(g8
g3
NtRp421
(dp422
g11
g12
sg13
VSystem Font
p423
sg15
I400
sg16
g12
sg17
g12
sg18
V/System/Library/Fonts/SFNSDisplay-RegularItalic.otf
p424
sg20
g21
sbag1
(g8
g3
NtRp425
(dp426
g11
g24
sg13
VArial Narrow
p427
sg15
I400
sg16
g227
sg17
g12
sg18
V/Library/Fonts/Arial Narrow Italic.ttf
p428
sg20
g21
sbag1
(g8
g3
NtRp429
(dp430
g11
g12
sg13
V.SF Compact Rounded
p431
sg15
I400
sg16
g12
sg17
g12
sg18
V/System/Library/Fonts/SFCompactRounded-Light.otf
p432
sg20
g21
sbag1
(g8
g3
NtRp433
(dp434
g11
g12
sg13
V.SF Compact Display
p435
sg15
I400
sg16
g12
sg17
g12
sg18
V/System/Library/Fonts/SFCompactDisplay-Regular.otf
p436
sg20
g21
sbag1
(g8
g3
NtRp437
(dp438
g11
g12
sg13
VEast Syriac Ctesiphon
p439
sg15
I400
sg16
g12
sg17
g12
sg18
V/usr/X11/lib/X11/fonts/OTF/SyrCOMCtesiphon.otf
p440
sg20
g21
sbag1
(g8
g3
NtRp441
(dp442
g11
g12
sg13
V.SF NS Display Condensed
p443
sg15
I400
sg16
g12
sg17
g12
sg18
V/System/Library/Fonts/SFNSDisplayCondensed-Ultralight.otf
p444
sg20
g21
sbag1
(g8
g3
NtRp445
(dp446
g11
g12
sg13
VSystem Font
p447
sg15
I400
sg16
g12
sg17
g12
sg18
V/System/Library/Fonts/SFNSDisplay-MediumItalic.otf
p448
sg20
g21
sbag1
(g8
g3
NtRp449
(dp450
g11
g12
sg13
VEstrangelo Midyat
p451
sg15
I400
sg16
g12
sg17
g12
sg18
V/usr/X11/lib/X11/fonts/OTF/SyrCOMMidyat.otf
p452
sg20
g21
sbag1
(g8
g3
NtRp453
(dp454
g11
g12
sg13
VApple Braille
p455
sg15
I400
sg16
g12
sg17
g12
sg18
V/System/Library/Fonts/Apple Braille Outline 8 Dot.ttf
p456
sg20
g21
sbag1
(g8
g3
NtRp457
(dp458
g11
g12
sg13
V.SF NS Text Condensed
p459
sg15
I400
sg16
g12
sg17
g12
sg18
V/System/Library/Fonts/SFNSTextCondensed-Heavy.otf
p460
sg20
g21
sbag1
(g8
g3
NtRp461
(dp462
g11
g12
sg13
VEstrangelo Quenneshrin
p463
sg15
I400
sg16
g12
sg17
g12
sg18
V/usr/X11/lib/X11/fonts/OTF/SyrCOMQenNeshrin.otf
p464
sg20
g21
sbag1
(g8
g3
NtRp465
(dp466
g11
g12
sg13
VPlantagenet Cherokee
p467
sg15
I400
sg16
g12
sg17
g12
sg18
V/Library/Fonts/PlantagenetCherokee.ttf
p468
sg20
g21
sbag1
(g8
g3
NtRp469
(dp470
g11
g12
sg13
VTimes New Roman
p471
sg15
I700
sg16
g12
sg17
g12
sg18
V/Library/Fonts/Times New Roman Bold.ttf
p472
sg20
g21
sbag1
(g8
g3
NtRp473
(dp474
g11
g45
sg13
VBitstream Vera Sans
p475
sg15
I400
sg16
g12
sg17
g12
sg18
V/usr/X11/lib/X11/fonts/TTF/VeraIt.ttf
p476
sg20
g21
sbag1
(g8
g3
NtRp477
(dp478
g11
g45
sg13
VLuxi Sans
p479
sg15
I700
sg16
g12
sg17
g12
sg18
V/usr/X11/lib/X11/fonts/TTF/luxisbi.ttf
p480
sg20
g21
sbag1
(g8
g3
NtRp481
(dp482
g11
g24
sg13
VArial
p483
sg15
I700
sg16
g12
sg17
g12
sg18
V/Library/Fonts/Arial Bold Italic.ttf
p484
sg20
g21
sbag1
(g8
g3
NtRp485
(dp486
g11
g12
sg13
VGoha-Tibeb Zemen
p487
sg15
I400
sg16
g12
sg17
g12
sg18
V/usr/X11/lib/X11/fonts/TTF/GohaTibebZemen.ttf
p488
sg20
g21
sbag1
(g8
g3
NtRp489
(dp490
g11
g12
sg13
V.SF NS Text Condensed
p491
sg15
I400
sg16
g12
sg17
g12
sg18
V/System/Library/Fonts/SFNSTextCondensed-Regular.otf
p492
sg20
g21
sbag1
(g8
g3
NtRp493
(dp494
g11
g12
sg13
VSTIXVariants
p495
sg15
I400
sg16
g12
sg17
g12
sg18
V/Library/Fonts/STIXVar.otf
p496
sg20
g21
sbag1
(g8
g3
NtRp497
(dp498
g11
g12
sg13
VMishafi
p499
sg15
I400
sg16
g12
sg17
g12
sg18
V/Library/Fonts/Mishafi.ttf
p500
sg20
g21
sbag1
(g8
g3
NtRp501
(dp502
g11
g12
sg13
VSTIXVariants
p503
sg15
I700
sg16
g12
sg17
g12
sg18
V/Library/Fonts/STIXVarBol.otf
p504
sg20
g21
sbag1
(g8
g3
NtRp505
(dp506
g11
g12
sg13
VGeorgia
p507
sg15
I400
sg16
g12
sg17
g12
sg18
V/Library/Fonts/Georgia.ttf
p508
sg20
g21
sbag1
(g8
g3
NtRp509
(dp510
g11
g12
sg13
VSystem Font
p511
sg15
I400
sg16
g12
sg17
g12
sg18
V/System/Library/Fonts/SFNSDisplay-BlackItalic.otf
p512
sg20
g21
sbag1
(g8
g3
NtRp513
(dp514
g11
g12
sg13
V.SF Compact Text
p515
sg15
I400
sg16
g12
sg17
g12
sg18
V/System/Library/Fonts/SFCompactText-Regular.otf
p516
sg20
g21
sbag1
(g8
g3
NtRp517
(dp518
g11
g12
sg13
V.SF Compact Text
p519
sg15
I400
sg16
g12
sg17
g12
sg18
V/System/Library/Fonts/SFCompactText-Semibold.otf
p520
sg20
g21
sbag1
(g8
g3
NtRp521
(dp522
g11
g12
sg13
VBitstream Vera Sans Mono
p523
sg15
I400
sg16
g12
sg17
g12
sg18
V/usr/X11/lib/X11/fonts/TTF/VeraMono.ttf
p524
sg20
g21
sbag1
(g8
g3
NtRp525
(dp526
g11
g12
sg13
V.LastResort
p527
sg15
I400
sg16
g12
sg17
g12
sg18
V/System/Library/Fonts/LastResort.otf
p528
sg20
g21
sbag1
(g8
g3
NtRp529
(dp530
g11
g12
sg13
VSTIXIntegralsUp
p531
sg15
I700
sg16
g12
sg17
g12
sg18
V/Library/Fonts/STIXIntUpBol.otf
p532
sg20
g21
sbag1
(g8
g3
NtRp533
(dp534
g11
g12
sg13
V.SF Compact Text
p535
sg15
I400
sg16
g12
sg17
g12
sg18
V/System/Library/Fonts/SFCompactText-Bold.otf
p536
sg20
g21
sbag1
(g8
g3
NtRp537
(dp538
g11
g12
sg13
VSkia
p539
sg15
I400
sg16
g12
sg17
g12
sg18
V/Library/Fonts/Skia.ttf
p540
sg20
g21
sbag1
(g8
g3
NtRp541
(dp542
g11
g12
sg13
VSTIXSizeFiveSym
p543
sg15
I400
sg16
g12
sg17
g12
sg18
V/Library/Fonts/STIXSizFiveSymReg.otf
p544
sg20
g21
sbag1
(g8
g3
NtRp545
(dp546
g11
g12
sg13
VVerdana
p547
sg15
I400
sg16
g12
sg17
g12
sg18
V/Library/Fonts/Verdana.ttf
p548
sg20
g21
sbag1
(g8
g3
NtRp549
(dp550
g11
g12
sg13
VFarisi
p551
sg15
I400
sg16
g12
sg17
g12
sg18
V/Library/Fonts/Farisi.ttf
p552
sg20
g21
sbag1
(g8
g3
NtRp553
(dp554
g11
g12
sg13
VSystem Font
p555
sg15
I400
sg16
g12
sg17
g12
sg18
V/System/Library/Fonts/SFNSText.ttf
p556
sg20
g21
sbag1
(g8
g3
NtRp557
(dp558
g11
g12
sg13
VLuxi Sans
p559
sg15
I700
sg16
g12
sg17
g12
sg18
V/usr/X11/lib/X11/fonts/TTF/luxisb.ttf
p560
sg20
g21
sbag1
(g8
g3
NtRp561
(dp562
g11
g45
sg13
VBitstream Vera Sans Mono
p563
sg15
I400
sg16
g12
sg17
g12
sg18
V/usr/X11/lib/X11/fonts/TTF/VeraMoIt.ttf
p564
sg20
g21
sbag1
(g8
g3
NtRp565
(dp566
g11
g12
sg13
V.SF Compact Display
p567
sg15
I400
sg16
g12
sg17
g12
sg18
V/System/Library/Fonts/SFCompactDisplay-Light.otf
p568
sg20
g21
sbag1
(g8
g3
NtRp569
(dp570
g11
g12
sg13
VSTIXNonUnicode
p571
sg15
I400
sg16
g12
sg17
g12
sg18
V/Library/Fonts/STIXNonUni.otf
p572
sg20
g21
sbag1
(g8
g3
NtRp573
(dp574
g11
g12
sg13
VBodoni 72 Smallcaps
p575
sg15
I400
sg16
g12
sg17
g12
sg18
V/Library/Fonts/Bodoni 72 Smallcaps Book.ttf
p576
sg20
g21
sbag1
(g8
g3
NtRp577
(dp578
g11
g45
sg13
VLuxi Serif
p579
sg15
I700
sg16
g12
sg17
g12
sg18
V/usr/X11/lib/X11/fonts/TTF/luxirbi.ttf
p580
sg20
g21
sbag1
(g8
g3
NtRp581
(dp582
g11
g12
sg13
VLuxi Sans
p583
sg15
I400
sg16
g12
sg17
g12
sg18
V/usr/X11/lib/X11/fonts/TTF/luxisr.ttf
p584
sg20
g21
sbag1
(g8
g3
NtRp585
(dp586
g11
g24
sg13
VArial
p587
sg15
I400
sg16
g12
sg17
g12
sg18
V/Library/Fonts/Arial Italic.ttf
p588
sg20
g21
sbag1
(g8
g3
NtRp589
(dp590
g11
g12
sg13
VBitstream Vera Sans Mono
p591
sg15
I700
sg16
g12
sg17
g12
sg18
V/usr/X11/lib/X11/fonts/TTF/VeraMoBd.ttf
p592
sg20
g21
sbag1
(g8
g3
NtRp593
(dp594
g11
g45
sg13
VBitstream Vera Sans Mono
p595
sg15
I700
sg16
g12
sg17
g12
sg18
V/usr/X11/lib/X11/fonts/TTF/VeraMoBI.ttf
p596
sg20
g21
sbag1
(g8
g3
NtRp597
(dp598
g11
g24
sg13
VSTIXNonUnicode
p599
sg15
I700
sg16
g12
sg17
g12
sg18
V/Library/Fonts/STIXNonUniBolIta.otf
p600
sg20
g21
sbag1
(g8
g3
NtRp601
(dp602
g11
g12
sg13
VApple Braille
p603
sg15
I400
sg16
g12
sg17
g12
sg18
V/System/Library/Fonts/Apple Braille Pinpoint 8 Dot.ttf
p604
sg20
g21
sbag1
(g8
g3
NtRp605
(dp606
g11
g24
sg13
VGeorgia
p607
sg15
I400
sg16
g12
sg17
g12
sg18
V/Library/Fonts/Georgia Italic.ttf
p608
sg20
g21
sbag1
(g8
g3
NtRp609
(dp610
g11
g12
sg13
VApple Braille
p611
sg15
I400
sg16
g12
sg17
g12
sg18
V/System/Library/Fonts/Apple Braille Outline 6 Dot.ttf
p612
sg20
g21
sbag1
(g8
g3
NtRp613
(dp614
g11
g24
sg13
VCourier New
p615
sg15
I700
sg16
g12
sg17
g12
sg18
V/Library/Fonts/Courier New Bold Italic.ttf
p616
sg20
g21
sbag1
(g8
g3
NtRp617
(dp618
g11
g12
sg13
VBitstream Vera Sans
p619
sg15
I700
sg16
g12
sg17
g12
sg18
V/usr/X11/lib/X11/fonts/TTF/VeraBd.ttf
p620
sg20
g21
sbag1
(g8
g3
NtRp621
(dp622
g11
g12
sg13
VSerto Kharput
p623
sg15
I400
sg16
g12
sg17
g12
sg18
V/usr/X11/lib/X11/fonts/OTF/SyrCOMKharput.otf
p624
sg20
g21
sbag1
(g8
g3
NtRp625
(dp626
g11
g12
sg13
VArial Rounded MT Bold
p627
sg15
I700
sg16
g12
sg17
g12
sg18
V/Library/Fonts/Arial Rounded Bold.ttf
p628
sg20
g21
sbag1
(g8
g3
NtRp629
(dp630
g11
g45
sg13
VLuxi Serif
p631
sg15
I400
sg16
g12
sg17
g12
sg18
V/usr/X11/lib/X11/fonts/TTF/luxirri.ttf
p632
sg20
g21
sbag1
(g8
g3
NtRp633
(dp634
g11
g12
sg13
V.SF NS Display Condensed
p635
sg15
I400
sg16
g12
sg17
g12
sg18
V/System/Library/Fonts/SFNSDisplayCondensed-Thin.otf
p636
sg20
g21
sbag1
(g8
g3
NtRp637
(dp638
g11
g12
sg13
VEstrangelo Edessa
p639
sg15
I400
sg16
g12
sg17
g12
sg18
V/usr/X11/lib/X11/fonts/OTF/SyrCOMEdessa.otf
p640
sg20
g21
sbag1
(g8
g3
NtRp641
(dp642
g11
g12
sg13
V.SF NS Display Condensed
p643
sg15
I400
sg16
g12
sg17
g12
sg18
V/System/Library/Fonts/SFNSDisplayCondensed-Heavy.otf
p644
sg20
g21
sbag1
(g8
g3
NtRp645
(dp646
g11
g24
sg13
VVerdana
p647
sg15
I700
sg16
g12
sg17
g12
sg18
V/Library/Fonts/Verdana Bold Italic.ttf
p648
sg20
g21
sbag1
(g8
g3
NtRp649
(dp650
g11
g12
sg13
V.SF Compact Display
p651
sg15
I400
sg16
g12
sg17
g12
sg18
V/System/Library/Fonts/SFCompactDisplay-Black.otf
p652
sg20
g21
sbag1
(g8
g3
NtRp653
(dp654
g11
g12
sg13
VSerto Malankara
p655
sg15
I400
sg16
g12
sg17
g12
sg18
V/usr/X11/lib/X11/fonts/OTF/SyrCOMMalankara.otf
p656
sg20
g21
sbag1
(g8
g3
NtRp657
(dp658
g11
g12
sg13
V.SF NS Display Condensed
p659
sg15
I400
sg16
g12
sg17
g12
sg18
V/System/Library/Fonts/SFNSDisplayCondensed-Black.otf
p660
sg20
g21
sbag1
(g8
g3
NtRp661
(dp662
g11
g12
sg13
VSTIXIntegralsSm
p663
sg15
I400
sg16
g12
sg17
g12
sg18
V/Library/Fonts/STIXIntSmReg.otf
p664
sg20
g21
sbag1
(g8
g3
NtRp665
(dp666
g11
g12
sg13
VKokonor
p667
sg15
I400
sg16
g12
sg17
g12
sg18
V/Library/Fonts/Kokonor.ttf
p668
sg20
g21
sbag1
(g8
g3
NtRp669
(dp670
g11
g12
sg13
VGoha-Tibeb Zemen
p671
sg15
I400
sg16
g12
sg17
g12
sg18
V/usr/X11/lib/X11/fonts/OTF/GohaTibebZemen.otf
p672
sg20
g21
sbag1
(g8
g3
NtRp673
(dp674
g11
g24
sg13
VVerdana
p675
sg15
I400
sg16
g12
sg17
g12
sg18
V/Library/Fonts/Verdana Italic.ttf
p676
sg20
g21
sbag1
(g8
g3
NtRp677
(dp678
g11
g12
sg13
VSTIXGeneral
p679
sg15
I700
sg16
g12
sg17
g12
sg18
V/Library/Fonts/STIXGeneralBol.otf
p680
sg20
g21
sbag1
(g8
g3
NtRp681
(dp682
g11
g12
sg13
VApple Braille
p683
sg15
I400
sg16
g12
sg17
g12
sg18
V/System/Library/Fonts/Apple Braille.ttf
p684
sg20
g21
sbag1
(g8
g3
NtRp685
(dp686
g11
g12
sg13
VSystem Font
p687
sg15
I400
sg16
g12
sg17
g12
sg18
V/System/Library/Fonts/SFNSDisplay-LightItalic.otf
p688
sg20
g21
sbag1
(g8
g3
NtRp689
(dp690
g11
g12
sg13
V.SF Compact Text
p691
sg15
I400
sg16
g12
sg17
g12
sg18
V/System/Library/Fonts/SFCompactText-Heavy.otf
p692
sg20
g21
sbag1
(g8
g3
NtRp693
(dp694
g11
g12
sg13
VSystem Font
p695
sg15
I400
sg16
g12
sg17
g12
sg18
V/System/Library/Fonts/SFNSDisplay-HeavyItalic.otf
p696
sg20
g21
sbag1
(g8
g3
NtRp697
(dp698
g11
g12
sg13
VSerto Urhoy
p699
sg15
I700
sg16
g12
sg17
g12
sg18
V/usr/X11/lib/X11/fonts/OTF/SyrCOMUrhoyBold.otf
p700
sg20
g21
sbag1
(g8
g3
NtRp701
(dp702
g11
g12
sg13
VChalkduster
p703
sg15
I400
sg16
g12
sg17
g12
sg18
V/Library/Fonts/Chalkduster.ttf
p704
sg20
g21
sbag1
(g8
g3
NtRp705
(dp706
g11
g12
sg13
VSerto Mardin
p707
sg15
I400
sg16
g12
sg17
g12
sg18
V/usr/X11/lib/X11/fonts/OTF/SyrCOMMardin.otf
p708
sg20
g21
sbag1
(g8
g3
NtRp709
(dp710
g11
g12
sg13
VEstrangelo Antioch
p711
sg15
I400
sg16
g12
sg17
g12
sg18
V/usr/X11/lib/X11/fonts/OTF/SyrCOMAntioch.otf
p712
sg20
g21
sbag1
(g8
g3
NtRp713
(dp714
g11
g12
sg13
VGurmukhi MT
p715
sg15
I400
sg16
g12
sg17
g12
sg18
V/Library/Fonts/Gurmukhi.ttf
p716
sg20
g21
sbag1
(g8
g3
NtRp717
(dp718
g11
g12
sg13
V.SF Compact Rounded
p719
sg15
I400
sg16
g12
sg17
g12
sg18
V/System/Library/Fonts/SFCompactRounded-Black.otf
p720
sg20
g21
sbag1
(g8
g3
NtRp721
(dp722
g11
g12
sg13
VSerto Jerusalem
p723
sg15
I700
sg16
g12
sg17
g12
sg18
V/usr/X11/lib/X11/fonts/OTF/SyrCOMJerusalemBold.otf
p724
sg20
g21
sbag1
(g8
g3
NtRp725
(dp726
g11
g24
sg13
VSTIXNonUnicode
p727
sg15
I400
sg16
g12
sg17
g12
sg18
V/Library/Fonts/STIXNonUniIta.otf
p728
sg20
g21
sbag1
(g8
g3
NtRp729
(dp730
g11
g12
sg13
VSTIXIntegralsUp
p731
sg15
I400
sg16
g12
sg17
g12
sg18
V/Library/Fonts/STIXIntUpReg.otf
p732
sg20
g21
sbag1
(g8
g3
NtRp733
(dp734
g11
g24
sg13
VSTIXGeneral
p735
sg15
I700
sg16
g12
sg17
g12
sg18
V/Library/Fonts/STIXGeneralBolIta.otf
p736
sg20
g21
sbag1
(g8
g3
NtRp737
(dp738
g11
g12
sg13
VTrebuchet MS
p739
sg15
I400
sg16
g12
sg17
g12
sg18
V/Library/Fonts/Trebuchet MS.ttf
p740
sg20
g21
sbag1
(g8
g3
NtRp741
(dp742
g11
g12
sg13
V.SF Compact Text
p743
sg15
I400
sg16
g12
sg17
g12
sg18
V/System/Library/Fonts/SFCompactText-MediumItalic.otf
p744
sg20
g21
sbag1
(g8
g3
NtRp745
(dp746
g11
g12
sg13
VEstrangelo Nisibin
p747
sg15
I400
sg16
g12
sg17
g12
sg18
V/usr/X11/lib/X11/fonts/OTF/SyrCOMNisibin.otf
p748
sg20
g21
sbag1
(g8
g3
NtRp749
(dp750
g11
g45
sg13
VBitstream Vera Sans
p751
sg15
I700
sg16
g12
sg17
g12
sg18
V/usr/X11/lib/X11/fonts/TTF/VeraBI.ttf
p752
sg20
g21
sbag1
(g8
g3
NtRp753
(dp754
g11
g12
sg13
VCourier New
p755
sg15
I700
sg16
g12
sg17
g12
sg18
V/Library/Fonts/Courier New Bold.ttf
p756
sg20
g21
sbag1
(g8
g3
NtRp757
(dp758
g11
g12
sg13
VBig Caslon
p759
sg15
I500
sg16
g12
sg17
g12
sg18
V/Library/Fonts/BigCaslon.ttf
p760
sg20
g21
sbag1
(g8
g3
NtRp761
(dp762
g11
g12
sg13
V.SF NS Text Condensed
p763
sg15
I400
sg16
g12
sg17
g12
sg18
V/System/Library/Fonts/SFNSTextCondensed-Semibold.otf
p764
sg20
g21
sbag1
(g8
g3
NtRp765
(dp766
g11
g12
sg13
VSerto Urhoy
p767
sg15
I400
sg16
g12
sg17
g12
sg18
V/usr/X11/lib/X11/fonts/OTF/SyrCOMUrhoy.otf
p768
sg20
g21
sbag1
(g8
g3
NtRp769
(dp770
g11
g12
sg13
VAyuthaya
p771
sg15
I400
sg16
g12
sg17
g12
sg18
V/Library/Fonts/Ayuthaya.ttf
p772
sg20
g21
sbag1
(g8
g3
NtRp773
(dp774
g11
g12
sg13
V.SF Compact Text
p775
sg15
I400
sg16
g12
sg17
g12
sg18
V/System/Library/Fonts/SFCompactText-SemiboldItalic.otf
p776
sg20
g21
sbag1
(g8
g3
NtRp777
(dp778
g11
g12
sg13
V.SF Compact Rounded
p779
sg15
I400
sg16
g12
sg17
g12
sg18
V/System/Library/Fonts/SFCompactRounded-Bold.otf
p780
sg20
g21
sbag1
(g8
g3
NtRp781
(dp782
g11
g12
sg13
VSTIXNonUnicode
p783
sg15
I700
sg16
g12
sg17
g12
sg18
V/Library/Fonts/STIXNonUniBol.otf
p784
sg20
g21
sbag1
(g8
g3
NtRp785
(dp786
g11
g12
sg13
VWebdings
p787
sg15
I400
sg16
g12
sg17
g12
sg18
V/Library/Fonts/Webdings.ttf
p788
sg20
g21
sbag1
(g8
g3
NtRp789
(dp790
g11
g12
sg13
VApple Braille
p791
sg15
I400
sg16
g12
sg17
g12
sg18
V/System/Library/Fonts/Apple Braille Pinpoint 6 Dot.ttf
p792
sg20
g21
sbag1
(g8
g3
NtRp793
(dp794
g11
g12
sg13
V.SF Compact Text
p795
sg15
I400
sg16
g12
sg17
g12
sg18
V/System/Library/Fonts/SFCompactText-RegularItalic.otf
p796
sg20
g21
sbag1
(g8
g3
NtRp797
(dp798
g11
g12
sg13
VSymbol
p799
sg15
I400
sg16
g12
sg17
g12
sg18
V/System/Library/Fonts/Symbol.ttf
p800
sg20
g21
sbag1
(g8
g3
NtRp801
(dp802
g11
g12
sg13
VSerto Batnan
p803
sg15
I400
sg16
g12
sg17
g12
sg18
V/usr/X11/lib/X11/fonts/OTF/SyrCOMBatnan.otf
p804
sg20
g21
sbag1
(g8
g3
NtRp805
(dp806
g11
g24
sg13
VTrebuchet MS
p807
sg15
I700
sg16
g12
sg17
g12
sg18
V/Library/Fonts/Trebuchet MS Bold Italic.ttf
p808
sg20
g21
sbag1
(g8
g3
NtRp809
(dp810
g11
g12
sg13
VBitstream Vera Serif
p811
sg15
I700
sg16
g12
sg17
g12
sg18
V/usr/X11/lib/X11/fonts/TTF/VeraSeBd.ttf
p812
sg20
g21
sbag1
(g8
g3
NtRp813
(dp814
g11
g12
sg13
VSystem Font
p815
sg15
I400
sg16
g12
sg17
g12
sg18
V/System/Library/Fonts/SFNSDisplay-UltralightItalic.otf
p816
sg20
g21
sbag1
(g8
g3
NtRp817
(dp818
g11
g12
sg13
VEstrangelo TurAbdin
p819
sg15
I400
sg16
g12
sg17
g12
sg18
V/usr/X11/lib/X11/fonts/OTF/SyrCOMTurAbdin.otf
p820
sg20
g21
sbag1
(g8
g3
NtRp821
(dp822
g11
g12
sg13
VWingdings 2
p823
sg15
I400
sg16
g12
sg17
g12
sg18
V/Library/Fonts/Wingdings 2.ttf
p824
sg20
g21
sbag1
(g8
g3
NtRp825
(dp826
g11
g12
sg13
VTahoma
p827
sg15
I400
sg16
g12
sg17
g12
sg18
V/Library/Fonts/Tahoma.ttf
p828
sg20
g21
sbag1
(g8
g3
NtRp829
(dp830
g11
g24
sg13
VBrush Script MT
p831
sg15
I400
sg16
g12
sg17
g12
sg18
V/Library/Fonts/Brush Script.ttf
p832
sg20
g21
sbag1
(g8
g3
NtRp833
(dp834
g11
g12
sg13
V.Keyboard
p835
sg15
I400
sg16
g12
sg17
g12
sg18
V/System/Library/Fonts/Keyboard.ttf
p836
sg20
g21
sbag1
(g8
g3
NtRp837
(dp838
g11
g12
sg13
V.SF Compact Text
p839
sg15
I400
sg16
g12
sg17
g12
sg18
V/System/Library/Fonts/SFCompactText-Medium.otf
p840
sg20
g21
sbag1
(g8
g3
NtRp841
(dp842
g11
g12
sg13
VEast Syriac Adiabene
p843
sg15
I400
sg16
g12
sg17
g12
sg18
V/usr/X11/lib/X11/fonts/OTF/SyrCOMAdiabene.otf
p844
sg20
g21
sbag1
(g8
g3
NtRp845
(dp846
g11
g12
sg13
VSTIXSizeOneSym
p847
sg15
I400
sg16
g12
sg17
g12
sg18
V/Library/Fonts/STIXSizOneSymReg.otf
p848
sg20
g21
sbag1
(g8
g3
NtRp849
(dp850
g11
g12
sg13
VSTIXIntegralsUpSm
p851
sg15
I400
sg16
g12
sg17
g12
sg18
V/Library/Fonts/STIXIntUpSmReg.otf
p852
sg20
g21
sbag1
(g8
g3
NtRp853
(dp854
g11
g12
sg13
VAndale Mono
p855
sg15
I400
sg16
g12
sg17
g12
sg18
V/Library/Fonts/Andale Mono.ttf
p856
sg20
g21
sbag1
(g8
g3
NtRp857
(dp858
g11
g12
sg13
VKhmer Sangam MN
p859
sg15
I400
sg16
g12
sg17
g12
sg18
V/Library/Fonts/Khmer Sangam MN.ttf
p860
sg20
g21
sbag1
(g8
g3
NtRp861
(dp862
g11
g12
sg13
VMicrosoft Sans Serif
p863
sg15
I400
sg16
g12
sg17
g12
sg18
V/Library/Fonts/Microsoft Sans Serif.ttf
p864
sg20
g21
sbag1
(g8
g3
NtRp865
(dp866
g11
g12
sg13
VSTIXIntegralsUpD
p867
sg15
I700
sg16
g12
sg17
g12
sg18
V/Library/Fonts/STIXIntUpDBol.otf
p868
sg20
g21
sbag1
(g8
g3
NtRp869
(dp870
g11
g12
sg13
V.SF Compact Text
p871
sg15
I400
sg16
g12
sg17
g12
sg18
V/System/Library/Fonts/SFCompactText-Light.otf
p872
sg20
g21
sbag1
(g8
g3
NtRp873
(dp874
g11
g12
sg13
VSTIXGeneral
p875
sg15
I400
sg16
g12
sg17
g12
sg18
V/Library/Fonts/STIXGeneral.otf
p876
sg20
g21
sbag1
(g8
g3
NtRp877
(dp878
g11
g24
sg13
VCourier New
p879
sg15
I400
sg16
g12
sg17
g12
sg18
V/Library/Fonts/Courier New Italic.ttf
p880
sg20
g21
sbag1
(g8
g3
NtRp881
(dp882
g11
g12
sg13
VArial Black
p883
sg15
I900
sg16
g12
sg17
g12
sg18
V/Library/Fonts/Arial Black.ttf
p884
sg20
g21
sbag1
(g8
g3
NtRp885
(dp886
g11
g12
sg13
V.SF Compact Display
p887
sg15
I400
sg16
g12
sg17
g12
sg18
V/System/Library/Fonts/SFCompactDisplay-Ultralight.otf
p888
sg20
g21
sbag1
(g8
g3
NtRp889
(dp890
g11
g12
sg13
V.SF Compact Display
p891
sg15
I400
sg16
g12
sg17
g12
sg18
V/System/Library/Fonts/SFCompactDisplay-Thin.otf
p892
sg20
g21
sbag1
(g8
g3
NtRp893
(dp894
g11
g24
sg13
VSTIXGeneral
p895
sg15
I400
sg16
g12
sg17
g12
sg18
V/Library/Fonts/STIXGeneralItalic.otf
p896
sg20
g21
sbag1
(g8
g3
NtRp897
(dp898
g11
g12
sg13
VSilom
p899
sg15
I400
sg16
g12
sg17
g12
sg18
V/Library/Fonts/Silom.ttf
p900
sg20
g21
sbag1
(g8
g3
NtRp901
(dp902
g11
g12
sg13
VLuxi Serif
p903
sg15
I400
sg16
g12
sg17
g12
sg18
V/usr/X11/lib/X11/fonts/TTF/luxirr.ttf
p904
sg20
g21
sbag1
(g8
g3
NtRp905
(dp906
g11
g12
sg13
V.SF NS Display Condensed
p907
sg15
I400
sg16
g12
sg17
g12
sg18
V/System/Library/Fonts/SFNSDisplayCondensed-Medium.otf
p908
sg20
g21
sbag1
(g8
g3
NtRp909
(dp910
g11
g12
sg13
V.SF NS Text Condensed
p911
sg15
I400
sg16
g12
sg17
g12
sg18
V/System/Library/Fonts/SFNSTextCondensed-Light.otf
p912
sg20
g21
sbag1
(g8
g3
NtRp913
(dp914
g11
g12
sg13
VSTIXSizeFourSym
p915
sg15
I400
sg16
g12
sg17
g12
sg18
V/Library/Fonts/STIXSizFourSymReg.otf
p916
sg20
g21
sbag1
(g8
g3
NtRp917
(dp918
g11
g12
sg13
VApple Chancery
p919
sg15
I400
sg16
g12
sg17
g12
sg18
V/Library/Fonts/Apple Chancery.ttf
p920
sg20
g21
sbag1
(g8
g3
NtRp921
(dp922
g11
g12
sg13
V.SF Compact Text
p923
sg15
I400
sg16
g12
sg17
g12
sg18
V/System/Library/Fonts/SFCompactText-LightItalic.otf
p924
sg20
g21
sbag1
(g8
g3
NtRp925
(dp926
g11
g12
sg13
VBitstream Vera Sans
p927
sg15
I400
sg16
g12
sg17
g12
sg18
V/usr/X11/lib/X11/fonts/TTF/Vera.ttf
p928
sg20
g21
sbag1
(g8
g3
NtRp929
(dp930
g11
g12
sg13
VTeamViewer12
p931
sg15
I400
sg16
g12
sg17
g12
sg18
V/Library/Fonts/TeamViewer12.otf
p932
sg20
g21
sbag1
(g8
g3
NtRp933
(dp934
g11
g12
sg13
VWingdings 3
p935
sg15
I400
sg16
g12
sg17
g12
sg18
V/Library/Fonts/Wingdings 3.ttf
p936
sg20
g21
sbag1
(g8
g3
NtRp937
(dp938
g11
g12
sg13
VComic Sans MS
p939
sg15
I700
sg16
g12
sg17
g12
sg18
V/Library/Fonts/Comic Sans MS Bold.ttf
p940
sg20
g21
sbag1
(g8
g3
NtRp941
(dp942
g11
g12
sg13
V.SF Compact Display
p943
sg15
I400
sg16
g12
sg17
g12
sg18
V/System/Library/Fonts/SFCompactDisplay-Heavy.otf
p944
sg20
g21
sbag1
(g8
g3
NtRp945
(dp946
g11
g12
sg13
VSTIXIntegralsUpSm
p947
sg15
I700
sg16
g12
sg17
g12
sg18
V/Library/Fonts/STIXIntUpSmBol.otf
p948
sg20
g21
sbag1
(g8
g3
NtRp949
(dp950
g11
g12
sg13
VLao Sangam MN
p951
sg15
I400
sg16
g12
sg17
g12
sg18
V/Library/Fonts/Lao Sangam MN.ttf
p952
sg20
g21
sbag1
(g8
g3
NtRp953
(dp954
g11
g12
sg13
VTrattatello
p955
sg15
I400
sg16
g12
sg17
g12
sg18
V/Library/Fonts/Trattatello.ttf
p956
sg20
g21
sbag1
(g8
g3
NtRp957
(dp958
g11
g12
sg13
VSTIXSizeOneSym
p959
sg15
I700
sg16
g12
sg17
g12
sg18
V/Library/Fonts/STIXSizOneSymBol.otf
p960
sg20
g21
sbag1
(g8
g3
NtRp961
(dp962
g11
g12
sg13
VComic Sans MS
p963
sg15
I400
sg16
g12
sg17
g12
sg18
V/Library/Fonts/Comic Sans MS.ttf
p964
sg20
g21
sbag1
(g8
g3
NtRp965
(dp966
g11
g12
sg13
VSTIXSizeTwoSym
p967
sg15
I400
sg16
g12
sg17
g12
sg18
V/Library/Fonts/STIXSizTwoSymReg.otf
p968
sg20
g21
sbag1
(g8
g3
NtRp969
(dp970
g11
g12
sg13
VEstrangelo Nisibin Outline
p971
sg15
I400
sg16
g12
sg17
g12
sg18
V/usr/X11/lib/X11/fonts/OTF/SyrCOMNisibinOutline.otf
p972
sg20
g21
sbag1
(g8
g3
NtRp973
(dp974
g11
g12
sg13
VBodoni Ornaments
p975
sg15
I400
sg16
g12
sg17
g12
sg18
V/Library/Fonts/Bodoni Ornaments.ttf
p976
sg20
g21
sbag1
(g8
g3
NtRp977
(dp978
g11
g12
sg13
VSTIXSizeFourSym
p979
sg15
I700
sg16
g12
sg17
g12
sg18
V/Library/Fonts/STIXSizFourSymBol.otf
p980
sg20
g21
sbag1
(g8
g3
NtRp981
(dp982
g11
g12
sg13
VArial
p983
sg15
I700
sg16
g12
sg17
g12
sg18
V/Library/Fonts/Arial Bold.ttf
p984
sg20
g21
sbag1
(g8
g3
NtRp985
(dp986
g11
g12
sg13
VGeorgia
p987
sg15
I700
sg16
g12
sg17
g12
sg18
V/Library/Fonts/Georgia Bold.ttf
p988
sg20
g21
sbag1
(g8
g3
NtRp989
(dp990
g11
g12
sg13
VSTIXIntegralsD
p991
sg15
I400
sg16
g12
sg17
g12
sg18
V/Library/Fonts/STIXIntDReg.otf
p992
sg20
g21
sbag1
(g8
g3
NtRp993
(dp994
g11
g12
sg13
VSerto Jerusalem Outline
p995
sg15
I400
sg16
g12
sg17
g12
sg18
V/usr/X11/lib/X11/fonts/OTF/SyrCOMJerusalemOutline.otf
p996
sg20
g21
sbag1
(g8
g3
NtRp997
(dp998
g11
g12
sg13
VSystem Font
p999
sg15
I400
sg16
g12
sg17
g12
sg18
V/System/Library/Fonts/SFNSSymbols-Regular.otf
p1000
sg20
g21
sbag1
(g8
g3
NtRp1001
(dp1002
g11
g24
sg13
VSerto Jerusalem
p1003
sg15
I400
sg16
g12
sg17
g12
sg18
V/usr/X11/lib/X11/fonts/OTF/SyrCOMJerusalemItalic.otf
p1004
sg20
g21
sbag1
(g8
g3
NtRp1005
(dp1006
g11
g12
sg13
VWingdings
p1007
sg15
I400
sg16
g12
sg17
g12
sg18
V/Library/Fonts/Wingdings.ttf
p1008
sg20
g21
sbag1
(g8
g3
NtRp1009
(dp1010
g11
g12
sg13
VImpact
p1011
sg15
I400
sg16
g12
sg17
g12
sg18
V/Library/Fonts/Impact.ttf
p1012
sg20
g21
sbag1
(g8
g3
NtRp1013
(dp1014
g11
g12
sg13
VTahoma
p1015
sg15
I700
sg16
g12
sg17
g12
sg18
V/Library/Fonts/Tahoma Bold.ttf
p1016
sg20
g21
sbag1
(g8
g3
NtRp1017
(dp1018
g11
g24
sg13
VGeorgia
p1019
sg15
I700
sg16
g12
sg17
g12
sg18
V/Library/Fonts/Georgia Bold Italic.ttf
p1020
sg20
g21
sbag1
(g8
g3
NtRp1021
(dp1022
g11
g12
sg13
VSTIXIntegralsUpD
p1023
sg15
I400
sg16
g12
sg17
g12
sg18
V/Library/Fonts/STIXIntUpDReg.otf
p1024
sg20
g21
sbag1
(g8
g3
NtRp1025
(dp1026
g11
g12
sg13
VSathu
p1027
sg15
I400
sg16
g12
sg17
g12
sg18
V/Library/Fonts/Sathu.ttf
p1028
sg20
g21
sbag1
(g8
g3
NtRp1029
(dp1030
g11
g12
sg13
V.SF Compact Rounded
p1031
sg15
I400
sg16
g12
sg17
g12
sg18
V/System/Library/Fonts/SFCompactRounded-Regular.otf
p1032
sg20
g21
sbag1
(g8
g3
NtRp1033
(dp1034
g11
g12
sg13
VSystem Font
p1035
sg15
I400
sg16
g12
sg17
g12
sg18
V/System/Library/Fonts/SFNSDisplay-ThinItalic.otf
p1036
sg20
g21
sbag1
(g8
g3
NtRp1037
(dp1038
g11
g45
sg13
VLuxi Mono
p1039
sg15
I700
sg16
g12
sg17
g12
sg18
V/usr/X11/lib/X11/fonts/TTF/luximbi.ttf
p1040
sg20
g21
sbasS'defaultFamily'
p1041
(dp1042
Vafm
p1043
VHelvetica
p1044
sVttf
p1045
VDejaVu Sans
p1046
ssS'ttffiles'
p1047
(lp1048
g19
ag26
ag30
ag34
ag38
ag42
ag47
ag51
ag55
ag59
ag63
ag67
ag71
ag75
ag79
ag83
ag87
ag91
ag95
ag99
ag103
ag107
ag111
ag115
ag119
ag123
ag127
ag131
ag135
ag139
ag143
ag147
ag151
ag155
ag159
ag163
ag167
ag171
ag175
ag179
ag183
ag187
ag191
ag195
ag199
ag203
ag207
ag211
ag215
ag219
ag223
ag228
ag232
ag236
ag240
ag244
ag248
ag252
ag256
ag260
ag264
ag268
ag272
aV/Library/Fonts/NISC18030.ttf
p1049
ag276
ag280
ag284
ag288
ag292
ag296
ag300
ag304
ag308
ag312
ag316
ag320
ag324
ag328
ag332
ag336
ag340
ag344
ag348
ag352
ag356
ag360
ag364
ag368
ag372
ag376
ag380
ag384
ag388
ag392
ag396
ag400
ag404
ag408
ag412
ag416
ag420
ag424
ag428
ag432
ag436
ag440
ag444
ag448
ag452
ag456
ag460
ag464
ag468
ag472
ag476
ag480
ag484
ag488
ag492
ag496
ag500
ag504
ag508
ag512
ag516
ag520
ag524
ag528
ag532
ag536
ag540
ag544
ag548
ag552
ag556
ag560
ag564
ag568
ag572
ag576
ag580
ag584
ag588
ag592
ag596
ag600
ag604
ag608
ag612
ag616
ag620
ag624
ag628
ag632
ag636
ag640
ag644
ag648
ag652
ag656
ag660
ag664
ag668
ag672
ag676
ag680
ag684
ag688
ag692
ag696
ag700
ag704
ag708
ag712
ag716
ag720
ag724
ag728
ag732
ag736
ag740
ag744
ag748
ag752
ag756
ag760
ag764
ag768
ag772
ag776
ag780
ag784
ag788
ag792
ag796
ag800
ag804
ag808
ag812
ag816
ag820
ag824
ag828
ag832
ag836
ag840
ag844
ag848
ag852
ag856
ag860
ag864
ag868
ag872
ag876
ag880
ag884
ag888
ag892
ag896
ag900
ag904
ag908
ag912
ag916
ag920
ag924
ag928
ag932
ag936
ag940
ag944
ag948
ag952
ag956
ag960
ag964
ag968
ag972
ag976
ag980
ag984
ag988
ag992
ag996
ag1000
ag1004
ag1008
ag1012
ag1016
ag1020
ag1024
ag1028
ag1032
ag1036
ag1040
asS'_FontManager__default_weight'
p1050
Vnormal
p1051
sS'_version'
p1052
I200
sS'default_size'
p1053
NsS'defaultFont'
p1054
(dp1055
g1043
V/Users/zy/anaconda3/envs/Zipline-C/lib/python2.7/site-packages/matplotlib/mpl-data/fonts/pdfcorefonts/Courier-Oblique.afm
p1056
sg1045
g19
ssS'afmfiles'
p1057
(lp1058
g1056
aV/Users/zy/anaconda3/envs/Zipline-C/lib/python2.7/site-packages/matplotlib/mpl-data/fonts/afm/cmex10.afm
p1059
aV/Users/zy/anaconda3/envs/Zipline-C/lib/python2.7/site-packages/matplotlib/mpl-data/fonts/afm/cmtt10.afm
p1060
aV/Users/zy/anaconda3/envs/Zipline-C/lib/python2.7/site-packages/matplotlib/mpl-data/fonts/afm/pagk8a.afm
p1061
aV/Users/zy/anaconda3/envs/Zipline-C/lib/python2.7/site-packages/matplotlib/mpl-data/fonts/afm/pagko8a.afm
p1062
aV/Users/zy/anaconda3/envs/Zipline-C/lib/python2.7/site-packages/matplotlib/mpl-data/fonts/afm/putr8a.afm
p1063
aV/Users/zy/anaconda3/envs/Zipline-C/lib/python2.7/site-packages/matplotlib/mpl-data/fonts/afm/pncr8a.afm
p1064
aV/Users/zy/anaconda3/envs/Zipline-C/lib/python2.7/site-packages/matplotlib/mpl-data/fonts/pdfcorefonts/Times-Bold.afm
p1065
aV/Users/zy/anaconda3/envs/Zipline-C/lib/python2.7/site-packages/matplotlib/mpl-data/fonts/afm/pzdr.afm
p1066
aV/Users/zy/anaconda3/envs/Zipline-C/lib/python2.7/site-packages/matplotlib/mpl-data/fonts/afm/cmmi10.afm
p1067
aV/Users/zy/anaconda3/envs/Zipline-C/lib/python2.7/site-packages/matplotlib/mpl-data/fonts/pdfcorefonts/Courier-Bold.afm
p1068
aV/Users/zy/anaconda3/envs/Zipline-C/lib/python2.7/site-packages/matplotlib/mpl-data/fonts/pdfcorefonts/Times-Roman.afm
p1069
aV/Users/zy/anaconda3/envs/Zipline-C/lib/python2.7/site-packages/matplotlib/mpl-data/fonts/afm/pagd8a.afm
p1070
aV/Users/zy/anaconda3/envs/Zipline-C/lib/python2.7/site-packages/matplotlib/mpl-data/fonts/afm/cmr10.afm
p1071
aV/Users/zy/anaconda3/envs/Zipline-C/lib/python2.7/site-packages/matplotlib/mpl-data/fonts/pdfcorefonts/Times-Italic.afm
p1072
aV/Users/zy/anaconda3/envs/Zipline-C/lib/python2.7/site-packages/matplotlib/mpl-data/fonts/afm/pbkdi8a.afm
p1073
aV/Users/zy/anaconda3/envs/Zipline-C/lib/python2.7/site-packages/matplotlib/mpl-data/fonts/afm/pncri8a.afm
p1074
aV/Users/zy/anaconda3/envs/Zipline-C/lib/python2.7/site-packages/matplotlib/mpl-data/fonts/afm/phvb8an.afm
p1075
aV/Users/zy/anaconda3/envs/Zipline-C/lib/python2.7/site-packages/matplotlib/mpl-data/fonts/afm/phvro8a.afm
p1076
aV/Users/zy/anaconda3/envs/Zipline-C/lib/python2.7/site-packages/matplotlib/mpl-data/fonts/afm/putb8a.afm
p1077
aV/Users/zy/anaconda3/envs/Zipline-C/lib/python2.7/site-packages/matplotlib/mpl-data/fonts/afm/pplri8a.afm
p1078
aV/Users/zy/anaconda3/envs/Zipline-C/lib/python2.7/site-packages/matplotlib/mpl-data/fonts/pdfcorefonts/Helvetica.afm
p1079
aV/Users/zy/anaconda3/envs/Zipline-C/lib/python2.7/site-packages/matplotlib/mpl-data/fonts/afm/phvro8an.afm
p1080
aV/Users/zy/anaconda3/envs/Zipline-C/lib/python2.7/site-packages/matplotlib/mpl-data/fonts/afm/pzcmi8a.afm
p1081
aV/Users/zy/anaconda3/envs/Zipline-C/lib/python2.7/site-packages/matplotlib/mpl-data/fonts/pdfcorefonts/Courier.afm
p1082
aV/Users/zy/anaconda3/envs/Zipline-C/lib/python2.7/site-packages/matplotlib/mpl-data/fonts/pdfcorefonts/Helvetica-BoldOblique.afm
p1083
aV/Users/zy/anaconda3/envs/Zipline-C/lib/python2.7/site-packages/matplotlib/mpl-data/fonts/afm/phvr8an.afm
p1084
aV/Users/zy/anaconda3/envs/Zipline-C/lib/python2.7/site-packages/matplotlib/mpl-data/fonts/afm/psyr.afm
p1085
aV/Users/zy/anaconda3/envs/Zipline-C/lib/python2.7/site-packages/matplotlib/mpl-data/fonts/afm/cmsy10.afm
p1086
aV/Users/zy/anaconda3/envs/Zipline-C/lib/python2.7/site-packages/matplotlib/mpl-data/fonts/afm/pplbi8a.afm
p1087
aV/Users/zy/anaconda3/envs/Zipline-C/lib/python2.7/site-packages/matplotlib/mpl-data/fonts/afm/pbkl8a.afm
p1088
aV/Users/zy/anaconda3/envs/Zipline-C/lib/python2.7/site-packages/matplotlib/mpl-data/fonts/afm/pbkli8a.afm
p1089
aV/Users/zy/anaconda3/envs/Zipline-C/lib/python2.7/site-packages/matplotlib/mpl-data/fonts/pdfcorefonts/ZapfDingbats.afm
p1090
aV/Users/zy/anaconda3/envs/Zipline-C/lib/python2.7/site-packages/matplotlib/mpl-data/fonts/pdfcorefonts/Symbol.afm
p1091
aV/Users/zy/anaconda3/envs/Zipline-C/lib/python2.7/site-packages/matplotlib/mpl-data/fonts/afm/pagdo8a.afm
p1092
aV/Users/zy/anaconda3/envs/Zipline-C/lib/python2.7/site-packages/matplotlib/mpl-data/fonts/afm/ptmbi8a.afm
p1093
aV/Users/zy/anaconda3/envs/Zipline-C/lib/python2.7/site-packages/matplotlib/mpl-data/fonts/afm/pcrr8a.afm
p1094
aV/Users/zy/anaconda3/envs/Zipline-C/lib/python2.7/site-packages/matplotlib/mpl-data/fonts/afm/phvbo8an.afm
p1095
aV/Users/zy/anaconda3/envs/Zipline-C/lib/python2.7/site-packages/matplotlib/mpl-data/fonts/pdfcorefonts/Helvetica-Oblique.afm
p1096
aV/Users/zy/anaconda3/envs/Zipline-C/lib/python2.7/site-packages/matplotlib/mpl-data/fonts/afm/phvlo8a.afm
p1097
aV/Users/zy/anaconda3/envs/Zipline-C/lib/python2.7/site-packages/matplotlib/mpl-data/fonts/afm/pcrb8a.afm
p1098
aV/Users/zy/anaconda3/envs/Zipline-C/lib/python2.7/site-packages/matplotlib/mpl-data/fonts/afm/ptmb8a.afm
p1099
aV/Users/zy/anaconda3/envs/Zipline-C/lib/python2.7/site-packages/matplotlib/mpl-data/fonts/afm/pplb8a.afm
p1100
aV/Users/zy/anaconda3/envs/Zipline-C/lib/python2.7/site-packages/matplotlib/mpl-data/fonts/afm/pncbi8a.afm
p1101
aV/Users/zy/anaconda3/envs/Zipline-C/lib/python2.7/site-packages/matplotlib/mpl-data/fonts/pdfcorefonts/Helvetica-Bold.afm
p1102
aV/Users/zy/anaconda3/envs/Zipline-C/lib/python2.7/site-packages/matplotlib/mpl-data/fonts/afm/phvbo8a.afm
p1103
aV/Users/zy/anaconda3/envs/Zipline-C/lib/python2.7/site-packages/matplotlib/mpl-data/fonts/afm/ptmr8a.afm
p1104
aV/Users/zy/anaconda3/envs/Zipline-C/lib/python2.7/site-packages/matplotlib/mpl-data/fonts/afm/putbi8a.afm
p1105
aV/Users/zy/anaconda3/envs/Zipline-C/lib/python2.7/site-packages/matplotlib/mpl-data/fonts/afm/putri8a.afm
p1106
aV/Users/zy/anaconda3/envs/Zipline-C/lib/python2.7/site-packages/matplotlib/mpl-data/fonts/afm/pbkd8a.afm
p1107
aV/Users/zy/anaconda3/envs/Zipline-C/lib/python2.7/site-packages/matplotlib/mpl-data/fonts/pdfcorefonts/Courier-BoldOblique.afm
p1108
aV/Users/zy/anaconda3/envs/Zipline-C/lib/python2.7/site-packages/matplotlib/mpl-data/fonts/afm/pcrbo8a.afm
p1109
aV/Users/zy/anaconda3/envs/Zipline-C/lib/python2.7/site-packages/matplotlib/mpl-data/fonts/afm/pplr8a.afm
p1110
aV/Users/zy/anaconda3/envs/Zipline-C/lib/python2.7/site-packages/matplotlib/mpl-data/fonts/pdfcorefonts/Times-BoldItalic.afm
p1111
aV/Users/zy/anaconda3/envs/Zipline-C/lib/python2.7/site-packages/matplotlib/mpl-data/fonts/afm/phvl8a.afm
p1112
aV/Users/zy/anaconda3/envs/Zipline-C/lib/python2.7/site-packages/matplotlib/mpl-data/fonts/afm/ptmri8a.afm
p1113
aV/Users/zy/anaconda3/envs/Zipline-C/lib/python2.7/site-packages/matplotlib/mpl-data/fonts/afm/phvr8a.afm
p1114
aV/Users/zy/anaconda3/envs/Zipline-C/lib/python2.7/site-packages/matplotlib/mpl-data/fonts/afm/pncb8a.afm
p1115
aV/Users/zy/anaconda3/envs/Zipline-C/lib/python2.7/site-packages/matplotlib/mpl-data/fonts/afm/pcrro8a.afm
p1116
aV/Users/zy/anaconda3/envs/Zipline-C/lib/python2.7/site-packages/matplotlib/mpl-data/fonts/afm/phvb8a.afm
p1117
aV/usr/X11/lib/X11/fonts/Type1/UTB_____.afm
p1118
aV/usr/X11/lib/X11/fonts/Type1/c0583bt_.afm
p1119
aV/usr/X11/lib/X11/fonts/Type1/l049036t.afm
p1120
aV/usr/X11/lib/X11/fonts/Type1/c0649bt_.afm
p1121
aV/usr/X11/lib/X11/fonts/Type1/UTRG____.afm
p1122
aV/usr/X11/lib/X11/fonts/Type1/c0582bt_.afm
p1123
aV/usr/X11/lib/X11/fonts/Type1/c0648bt_.afm
p1124
aV/usr/X11/lib/X11/fonts/Type1/c0633bt_.afm
p1125
aV/usr/X11/lib/X11/fonts/Type1/l048013t.afm
p1126
aV/usr/X11/lib/X11/fonts/Type1/courb.afm
p1127
aV/usr/X11/lib/X11/fonts/Type1/c0419bt_.afm
p1128
aV/usr/X11/lib/X11/fonts/Type1/UTI_____.afm
p1129
aV/usr/X11/lib/X11/fonts/Type1/l049016t.afm
p1130
aV/usr/X11/lib/X11/fonts/Type1/l048033t.afm
p1131
aV/usr/X11/lib/X11/fonts/Type1/l048016t.afm
p1132
aV/usr/X11/lib/X11/fonts/Type1/l048036t.afm
p1133
aV/usr/X11/lib/X11/fonts/Type1/courbi.afm
p1134
aV/usr/X11/lib/X11/fonts/Type1/c0632bt_.afm
p1135
aV/usr/X11/lib/X11/fonts/Type1/l049013t.afm
p1136
aV/usr/X11/lib/X11/fonts/Type1/c0611bt_.afm
p1137
aV/usr/X11/lib/X11/fonts/Type1/l047036t.afm
p1138
aV/usr/X11/lib/X11/fonts/Type1/l047016t.afm
p1139
aV/usr/X11/lib/X11/fonts/Type1/l047033t.afm
p1140
aV/usr/X11/lib/X11/fonts/Type1/l047013t.afm
p1141
aV/usr/X11/lib/X11/fonts/Type1/l049033t.afm
p1142
aV/usr/X11/lib/X11/fonts/Type1/UTBI____.afm
p1143
aV/usr/X11/lib/X11/fonts/Type1/cour.afm
p1144
aV/usr/X11/lib/X11/fonts/Type1/couri.afm
p1145
asS'afmlist'
p1146
(lp1147
g1
(g8
g3
NtRp1148
(dp1149
g11
Vitalic
p1150
sg13
S'Courier'
p1151
sg15
I500
sg16
Vnormal
p1152
sg17
g1152
sg18
g1056
sg20
Vscalable
p1153
sbag1
(g8
g3
NtRp1154
(dp1155
g11
g1152
sg13
S'Computer Modern'
p1156
sg15
I500
sg16
g1152
sg17
g1152
sg18
g1059
sg20
g1153
sbag1
(g8
g3
NtRp1157
(dp1158
g11
g1152
sg13
S'Computer Modern'
p1159
sg15
I500
sg16
g1152
sg17
g1152
sg18
g1060
sg20
g1153
sbag1
(g8
g3
NtRp1160
(dp1161
g11
g1152
sg13
S'ITC Avant Garde Gothic'
p1162
sg15
I400
sg16
g1152
sg17
g1152
sg18
g1061
sg20
g1153
sbag1
(g8
g3
NtRp1163
(dp1164
g11
g1150
sg13
S'ITC Avant Garde Gothic'
p1165
sg15
I400
sg16
g1152
sg17
g1152
sg18
g1062
sg20
g1153
sbag1
(g8
g3
NtRp1166
(dp1167
g11
g1152
sg13
S'Utopia'
p1168
sg15
I400
sg16
g1152
sg17
g1152
sg18
g1063
sg20
g1153
sbag1
(g8
g3
NtRp1169
(dp1170
g11
g1152
sg13
S'New Century Schoolbook'
p1171
sg15
I500
sg16
g1152
sg17
g1152
sg18
g1064
sg20
g1153
sbag1
(g8
g3
NtRp1172
(dp1173
g11
g1152
sg13
S'Times'
p1174
sg15
I700
sg16
g1152
sg17
g1152
sg18
g1065
sg20
g1153
sbag1
(g8
g3
NtRp1175
(dp1176
g11
g1152
sg13
S'ITC Zapf Dingbats'
p1177
sg15
I500
sg16
g1152
sg17
g1152
sg18
g1066
sg20
g1153
sbag1
(g8
g3
NtRp1178
(dp1179
g11
g1150
sg13
S'Computer Modern'
p1180
sg15
I500
sg16
g1152
sg17
g1152
sg18
g1067
sg20
g1153
sbag1
(g8
g3
NtRp1181
(dp1182
g11
g1152
sg13
S'Courier'
p1183
sg15
I700
sg16
g1152
sg17
g1152
sg18
g1068
sg20
g1153
sbag1
(g8
g3
NtRp1184
(dp1185
g11
g1152
sg13
S'Times'
p1186
sg15
I500
sg16
g1152
sg17
g1152
sg18
g1069
sg20
g1153
sbag1
(g8
g3
NtRp1187
(dp1188
g11
g1152
sg13
S'ITC Avant Garde Gothic'
p1189
sg15
I600
sg16
g1152
sg17
g1152
sg18
g1070
sg20
g1153
sbag1
(g8
g3
NtRp1190
(dp1191
g11
g1152
sg13
S'Computer Modern'
p1192
sg15
I500
sg16
g1152
sg17
g1152
sg18
g1071
sg20
g1153
sbag1
(g8
g3
NtRp1193
(dp1194
g11
g1150
sg13
S'Times'
p1195
sg15
I500
sg16
g1152
sg17
g1152
sg18
g1072
sg20
g1153
sbag1
(g8
g3
NtRp1196
(dp1197
g11
g1150
sg13
S'ITC Bookman'
p1198
sg15
I600
sg16
g1152
sg17
g1152
sg18
g1073
sg20
g1153
sbag1
(g8
g3
NtRp1199
(dp1200
g11
g1150
sg13
S'New Century Schoolbook'
p1201
sg15
I500
sg16
g1152
sg17
g1152
sg18
g1074
sg20
g1153
sbag1
(g8
g3
NtRp1202
(dp1203
g11
g1152
sg13
S'Helvetica'
p1204
sg15
I700
sg16
Vcondensed
p1205
sg17
g1152
sg18
g1075
sg20
g1153
sbag1
(g8
g3
NtRp1206
(dp1207
g11
g1150
sg13
S'Helvetica'
p1208
sg15
I500
sg16
g1152
sg17
g1152
sg18
g1076
sg20
g1153
sbag1
(g8
g3
NtRp1209
(dp1210
g11
g1152
sg13
S'Utopia'
p1211
sg15
I700
sg16
g1152
sg17
g1152
sg18
g1077
sg20
g1153
sbag1
(g8
g3
NtRp1212
(dp1213
g11
g1150
sg13
S'Palatino'
p1214
sg15
I500
sg16
g1152
sg17
g1152
sg18
g1078
sg20
g1153
sbag1
(g8
g3
NtRp1215
(dp1216
g11
g1152
sg13
S'Helvetica'
p1217
sg15
I500
sg16
g1152
sg17
g1152
sg18
g1079
sg20
g1153
sbag1
(g8
g3
NtRp1218
(dp1219
g11
g1150
sg13
S'Helvetica'
p1220
sg15
I500
sg16
g1205
sg17
g1152
sg18
g1080
sg20
g1153
sbag1
(g8
g3
NtRp1221
(dp1222
g11
g1150
sg13
S'ITC Zapf Chancery'
p1223
sg15
I500
sg16
g1152
sg17
g1152
sg18
g1081
sg20
g1153
sbag1
(g8
g3
NtRp1224
(dp1225
g11
g1152
sg13
S'Courier'
p1226
sg15
I500
sg16
g1152
sg17
g1152
sg18
g1082
sg20
g1153
sbag1
(g8
g3
NtRp1227
(dp1228
g11
g1150
sg13
S'Helvetica'
p1229
sg15
I700
sg16
g1152
sg17
g1152
sg18
g1083
sg20
g1153
sbag1
(g8
g3
NtRp1230
(dp1231
g11
g1152
sg13
S'Helvetica'
p1232
sg15
I500
sg16
g1205
sg17
g1152
sg18
g1084
sg20
g1153
sbag1
(g8
g3
NtRp1233
(dp1234
g11
g1152
sg13
S'Symbol'
p1235
sg15
I500
sg16
g1152
sg17
g1152
sg18
g1085
sg20
g1153
sbag1
(g8
g3
NtRp1236
(dp1237
g11
g1150
sg13
S'Computer Modern'
p1238
sg15
I500
sg16
g1152
sg17
g1152
sg18
g1086
sg20
g1153
sbag1
(g8
g3
NtRp1239
(dp1240
g11
g1150
sg13
S'Palatino'
p1241
sg15
I700
sg16
g1152
sg17
g1152
sg18
g1087
sg20
g1153
sbag1
(g8
g3
NtRp1242
(dp1243
g11
g1152
sg13
S'ITC Bookman'
p1244
sg15
I200
sg16
g1152
sg17
g1152
sg18
g1088
sg20
g1153
sbag1
(g8
g3
NtRp1245
(dp1246
g11
g1150
sg13
S'ITC Bookman'
p1247
sg15
I200
sg16
g1152
sg17
g1152
sg18
g1089
sg20
g1153
sbag1
(g8
g3
NtRp1248
(dp1249
g11
g1152
sg13
S'ZapfDingbats'
p1250
sg15
I500
sg16
g1152
sg17
g1152
sg18
g1090
sg20
g1153
sbag1
(g8
g3
NtRp1251
(dp1252
g11
g1152
sg13
S'Symbol'
p1253
sg15
I500
sg16
g1152
sg17
g1152
sg18
g1091
sg20
g1153
sbag1
(g8
g3
NtRp1254
(dp1255
g11
g1150
sg13
S'ITC Avant Garde Gothic'
p1256
sg15
I600
sg16
g1152
sg17
g1152
sg18
g1092
sg20
g1153
sbag1
(g8
g3
NtRp1257
(dp1258
g11
g1150
sg13
S'Times'
p1259
sg15
I700
sg16
g1152
sg17
g1152
sg18
g1093
sg20
g1153
sbag1
(g8
g3
NtRp1260
(dp1261
g11
g1152
sg13
S'Courier'
p1262
sg15
I500
sg16
g1152
sg17
g1152
sg18
g1094
sg20
g1153
sbag1
(g8
g3
NtRp1263
(dp1264
g11
g1150
sg13
S'Helvetica'
p1265
sg15
I700
sg16
g1205
sg17
g1152
sg18
g1095
sg20
g1153
sbag1
(g8
g3
NtRp1266
(dp1267
g11
g1150
sg13
S'Helvetica'
p1268
sg15
I500
sg16
g1152
sg17
g1152
sg18
g1096
sg20
g1153
sbag1
(g8
g3
NtRp1269
(dp1270
g11
g1150
sg13
S'Helvetica'
p1271
sg15
I200
sg16
g1152
sg17
g1152
sg18
g1097
sg20
g1153
sbag1
(g8
g3
NtRp1272
(dp1273
g11
g1152
sg13
S'Courier'
p1274
sg15
I700
sg16
g1152
sg17
g1152
sg18
g1098
sg20
g1153
sbag1
(g8
g3
NtRp1275
(dp1276
g11
g1152
sg13
S'Times'
p1277
sg15
I700
sg16
g1152
sg17
g1152
sg18
g1099
sg20
g1153
sbag1
(g8
g3
NtRp1278
(dp1279
g11
g1152
sg13
S'Palatino'
p1280
sg15
I700
sg16
g1152
sg17
g1152
sg18
g1100
sg20
g1153
sbag1
(g8
g3
NtRp1281
(dp1282
g11
g1150
sg13
S'New Century Schoolbook'
p1283
sg15
I700
sg16
g1152
sg17
g1152
sg18
g1101
sg20
g1153
sbag1
(g8
g3
NtRp1284
(dp1285
g11
g1152
sg13
S'Helvetica'
p1286
sg15
I700
sg16
g1152
sg17
g1152
sg18
g1102
sg20
g1153
sbag1
(g8
g3
NtRp1287
(dp1288
g11
g1150
sg13
S'Helvetica'
p1289
sg15
I700
sg16
g1152
sg17
g1152
sg18
g1103
sg20
g1153
sbag1
(g8
g3
NtRp1290
(dp1291
g11
g1152
sg13
S'Times'
p1292
sg15
I500
sg16
g1152
sg17
g1152
sg18
g1104
sg20
g1153
sbag1
(g8
g3
NtRp1293
(dp1294
g11
g1150
sg13
S'Utopia'
p1295
sg15
I700
sg16
g1152
sg17
g1152
sg18
g1105
sg20
g1153
sbag1
(g8
g3
NtRp1296
(dp1297
g11
g1150
sg13
S'Utopia'
p1298
sg15
I400
sg16
g1152
sg17
g1152
sg18
g1106
sg20
g1153
sbag1
(g8
g3
NtRp1299
(dp1300
g11
g1152
sg13
S'ITC Bookman'
p1301
sg15
I600
sg16
g1152
sg17
g1152
sg18
g1107
sg20
g1153
sbag1
(g8
g3
NtRp1302
(dp1303
g11
g1150
sg13
S'Courier'
p1304
sg15
I700
sg16
g1152
sg17
g1152
sg18
g1108
sg20
g1153
sbag1
(g8
g3
NtRp1305
(dp1306
g11
g1150
sg13
S'Courier'
p1307
sg15
I700
sg16
g1152
sg17
g1152
sg18
g1109
sg20
g1153
sbag1
(g8
g3
NtRp1308
(dp1309
g11
g1152
sg13
S'Palatino'
p1310
sg15
I500
sg16
g1152
sg17
g1152
sg18
g1110
sg20
g1153
sbag1
(g8
g3
NtRp1311
(dp1312
g11
g1150
sg13
S'Times'
p1313
sg15
I700
sg16
g1152
sg17
g1152
sg18
g1111
sg20
g1153
sbag1
(g8
g3
NtRp1314
(dp1315
g11
g1152
sg13
S'Helvetica'
p1316
sg15
I200
sg16
g1152
sg17
g1152
sg18
g1112
sg20
g1153
sbag1
(g8
g3
NtRp1317
(dp1318
g11
g1150
sg13
S'Times'
p1319
sg15
I500
sg16
g1152
sg17
g1152
sg18
g1113
sg20
g1153
sbag1
(g8
g3
NtRp1320
(dp1321
g11
g1152
sg13
S'Helvetica'
p1322
sg15
I500
sg16
g1152
sg17
g1152
sg18
g1114
sg20
g1153
sbag1
(g8
g3
NtRp1323
(dp1324
g11
g1152
sg13
S'New Century Schoolbook'
p1325
sg15
I700
sg16
g1152
sg17
g1152
sg18
g1115
sg20
g1153
sbag1
(g8
g3
NtRp1326
(dp1327
g11
g1150
sg13
S'Courier'
p1328
sg15
I500
sg16
g1152
sg17
g1152
sg18
g1116
sg20
g1153
sbag1
(g8
g3
NtRp1329
(dp1330
g11
g1152
sg13
S'Helvetica'
p1331
sg15
I700
sg16
g1152
sg17
g1152
sg18
g1117
sg20
g1153
sbag1
(g8
g3
NtRp1332
(dp1333
g11
g1152
sg13
S'Utopia'
p1334
sg15
I700
sg16
g1152
sg17
g1152
sg18
g1118
sg20
g1153
sbag1
(g8
g3
NtRp1335
(dp1336
g11
g1152
sg13
S'Courier 10 Pitch'
p1337
sg15
I700
sg16
g1152
sg17
g1152
sg18
g1119
sg20
g1153
sbag1
(g8
g3
NtRp1338
(dp1339
g11
g1150
sg13
S'Luxi Serif'
p1340
sg15
I700
sg16
g1152
sg17
g1152
sg18
g1120
sg20
g1153
sbag1
(g8
g3
NtRp1341
(dp1342
g11
g1150
sg13
S'Bitstream Charter'
p1343
sg15
I400
sg16
g1152
sg17
g1152
sg18
g1121
sg20
g1153
sbag1
(g8
g3
NtRp1344
(dp1345
g11
g1152
sg13
S'Utopia'
p1346
sg15
I400
sg16
g1152
sg17
g1152
sg18
g1122
sg20
g1153
sbag1
(g8
g3
NtRp1347
(dp1348
g11
g1150
sg13
S'Courier 10 Pitch'
p1349
sg15
I400
sg16
g1152
sg17
g1152
sg18
g1123
sg20
g1153
sbag1
(g8
g3
NtRp1350
(dp1351
g11
g1152
sg13
S'Bitstream Charter'
p1352
sg15
I400
sg16
g1152
sg17
g1152
sg18
g1124
sg20
g1153
sbag1
(g8
g3
NtRp1353
(dp1354
g11
g1150
sg13
S'Bitstream Charter'
p1355
sg15
I700
sg16
g1152
sg17
g1152
sg18
g1125
sg20
g1153
sbag1
(g8
g3
NtRp1356
(dp1357
g11
g1152
sg13
S'Luxi Sans'
p1358
sg15
I400
sg16
g1152
sg17
g1152
sg18
g1126
sg20
g1153
sbag1
(g8
g3
NtRp1359
(dp1360
g11
g1152
sg13
S'Courier'
p1361
sg15
I700
sg16
g1152
sg17
g1152
sg18
g1127
sg20
g1153
sbag1
(g8
g3
NtRp1362
(dp1363
g11
g1152
sg13
S'Courier 10 Pitch'
p1364
sg15
I400
sg16
g1152
sg17
g1152
sg18
g1128
sg20
g1153
sbag1
(g8
g3
NtRp1365
(dp1366
g11
g1150
sg13
S'Utopia'
p1367
sg15
I400
sg16
g1152
sg17
g1152
sg18
g1129
sg20
g1153
sbag1
(g8
g3
NtRp1368
(dp1369
g11
g1152
sg13
S'Luxi Serif'
p1370
sg15
I700
sg16
g1152
sg17
g1152
sg18
g1130
sg20
g1153
sbag1
(g8
g3
NtRp1371
(dp1372
g11
g1150
sg13
S'Luxi Sans'
p1373
sg15
I400
sg16
g1152
sg17
g1152
sg18
g1131
sg20
g1153
sbag1
(g8
g3
NtRp1374
(dp1375
g11
g1152
sg13
S'Luxi Sans'
p1376
sg15
I700
sg16
g1152
sg17
g1152
sg18
g1132
sg20
g1153
sbag1
(g8
g3
NtRp1377
(dp1378
g11
g1150
sg13
S'Luxi Sans'
p1379
sg15
I700
sg16
g1152
sg17
g1152
sg18
g1133
sg20
g1153
sbag1
(g8
g3
NtRp1380
(dp1381
g11
g1150
sg13
S'Courier'
p1382
sg15
I700
sg16
g1152
sg17
g1152
sg18
g1134
sg20
g1153
sbag1
(g8
g3
NtRp1383
(dp1384
g11
g1152
sg13
S'Bitstream Charter'
p1385
sg15
I700
sg16
g1152
sg17
g1152
sg18
g1135
sg20
g1153
sbag1
(g8
g3
NtRp1386
(dp1387
g11
g1152
sg13
S'Luxi Serif'
p1388
sg15
I400
sg16
g1152
sg17
g1152
sg18
g1136
sg20
g1153
sbag1
(g8
g3
NtRp1389
(dp1390
g11
g1150
sg13
S'Courier 10 Pitch'
p1391
sg15
I700
sg16
g1152
sg17
g1152
sg18
g1137
sg20
g1153
sbag1
(g8
g3
NtRp1392
(dp1393
g11
g1150
sg13
S'Luxi Mono'
p1394
sg15
I700
sg16
g1152
sg17
g1152
sg18
g1138
sg20
g1153
sbag1
(g8
g3
NtRp1395
(dp1396
g11
g1152
sg13
S'Luxi Mono'
p1397
sg15
I700
sg16
g1152
sg17
g1152
sg18
g1139
sg20
g1153
sbag1
(g8
g3
NtRp1398
(dp1399
g11
g1150
sg13
S'Luxi Mono'
p1400
sg15
I400
sg16
g1152
sg17
g1152
sg18
g1140
sg20
g1153
sbag1
(g8
g3
NtRp1401
(dp1402
g11
g1152
sg13
S'Luxi Mono'
p1403
sg15
I400
sg16
g1152
sg17
g1152
sg18
g1141
sg20
g1153
sbag1
(g8
g3
NtRp1404
(dp1405
g11
g1150
sg13
S'Luxi Serif'
p1406
sg15
I400
sg16
g1152
sg17
g1152
sg18
g1142
sg20
g1153
sbag1
(g8
g3
NtRp1407
(dp1408
g11
g1150
sg13
S'Utopia'
p1409
sg15
I700
sg16
g1152
sg17
g1152
sg18
g1143
sg20
g1153
sbag1
(g8
g3
NtRp1410
(dp1411
g11
g1152
sg13
S'Courier'
p1412
sg15
I400
sg16
g1152
sg17
g1152
sg18
g1144
sg20
g1153
sbag1
(g8
g3
NtRp1413
(dp1414
g11
g1150
sg13
S'Courier'
p1415
sg15
I400
sg16
g1152
sg17
g1152
sg18
g1145
sg20
g1153
sbasb.